
lf1.elf:     file format elf32-avr

Sections:
Idx Name          Size      VMA       LMA       File off  Algn
  0 .data         00000198  00800100  00004d00  00004d94  2**0
                  CONTENTS, ALLOC, LOAD, DATA
  1 .text         00004d00  00000000  00000000  00000094  2**1
                  CONTENTS, ALLOC, LOAD, READONLY, CODE
  2 .bss          00000447  00800298  00800298  00004f2c  2**0
                  ALLOC
  3 .stab         0000a6e0  00000000  00000000  00004f2c  2**2
                  CONTENTS, READONLY, DEBUGGING
  4 .stabstr      00008dbf  00000000  00000000  0000f60c  2**0
                  CONTENTS, READONLY, DEBUGGING
  5 .debug_aranges 00000268  00000000  00000000  000183cb  2**0
                  CONTENTS, READONLY, DEBUGGING
  6 .debug_pubnames 000004b2  00000000  00000000  00018633  2**0
                  CONTENTS, READONLY, DEBUGGING
  7 .debug_info   00003591  00000000  00000000  00018ae5  2**0
                  CONTENTS, READONLY, DEBUGGING
  8 .debug_abbrev 00001a0d  00000000  00000000  0001c076  2**0
                  CONTENTS, READONLY, DEBUGGING
  9 .debug_line   00003217  00000000  00000000  0001da83  2**0
                  CONTENTS, READONLY, DEBUGGING
 10 .debug_frame  00000380  00000000  00000000  00020c9c  2**2
                  CONTENTS, READONLY, DEBUGGING
 11 .debug_str    0000095a  00000000  00000000  0002101c  2**0
                  CONTENTS, READONLY, DEBUGGING
 12 .debug_loc    00002092  00000000  00000000  00021976  2**0
                  CONTENTS, READONLY, DEBUGGING
 13 .debug_pubtypes 0000079c  00000000  00000000  00023a08  2**0
                  CONTENTS, READONLY, DEBUGGING
 14 .debug_ranges 000001f8  00000000  00000000  000241a4  2**0
                  CONTENTS, READONLY, DEBUGGING

Disassembly of section .text:

00000000 <__vectors>:
       0:	0c 94 6a 00 	jmp	0xd4	; 0xd4 <__dtors_end>
       4:	0c 94 92 00 	jmp	0x124	; 0x124 <__bad_interrupt>
       8:	0c 94 92 00 	jmp	0x124	; 0x124 <__bad_interrupt>
       c:	0c 94 92 00 	jmp	0x124	; 0x124 <__bad_interrupt>
      10:	0c 94 92 00 	jmp	0x124	; 0x124 <__bad_interrupt>
      14:	0c 94 92 00 	jmp	0x124	; 0x124 <__bad_interrupt>
      18:	0c 94 92 00 	jmp	0x124	; 0x124 <__bad_interrupt>
      1c:	0c 94 92 00 	jmp	0x124	; 0x124 <__bad_interrupt>
      20:	0c 94 92 00 	jmp	0x124	; 0x124 <__bad_interrupt>
      24:	0c 94 e8 18 	jmp	0x31d0	; 0x31d0 <__vector_9>
      28:	0c 94 92 00 	jmp	0x124	; 0x124 <__bad_interrupt>
      2c:	0c 94 92 00 	jmp	0x124	; 0x124 <__bad_interrupt>
      30:	0c 94 92 00 	jmp	0x124	; 0x124 <__bad_interrupt>
      34:	0c 94 5c 11 	jmp	0x22b8	; 0x22b8 <__vector_13>
      38:	0c 94 92 00 	jmp	0x124	; 0x124 <__bad_interrupt>
      3c:	0c 94 92 00 	jmp	0x124	; 0x124 <__bad_interrupt>
      40:	0c 94 92 00 	jmp	0x124	; 0x124 <__bad_interrupt>
      44:	0c 94 92 00 	jmp	0x124	; 0x124 <__bad_interrupt>
      48:	0c 94 92 00 	jmp	0x124	; 0x124 <__bad_interrupt>
      4c:	0c 94 92 00 	jmp	0x124	; 0x124 <__bad_interrupt>
      50:	0c 94 92 00 	jmp	0x124	; 0x124 <__bad_interrupt>
      54:	0c 94 92 00 	jmp	0x124	; 0x124 <__bad_interrupt>
      58:	0c 94 92 00 	jmp	0x124	; 0x124 <__bad_interrupt>
      5c:	0c 94 92 00 	jmp	0x124	; 0x124 <__bad_interrupt>
      60:	0c 94 92 00 	jmp	0x124	; 0x124 <__bad_interrupt>
      64:	0c 94 92 00 	jmp	0x124	; 0x124 <__bad_interrupt>

00000068 <welcome_line1>:
      68:	50 6f 6c 6f 6c 75 33 f7 00                          Pololu3..

00000071 <welcome_line2>:
      71:	46 45 55 50 41 75 74 6f 6d 00                       FEUPAutom.

0000007b <demo_name_line1>:
      7b:	46 41 5f 35 00                                      FA_5.

00000080 <demo_name_line2>:
      80:	46 45 55 50 00                                      FEUP.

00000085 <welcome>:
      85:	3e 67 33 32 3e 3e 63 33 32 00                       >g32>>c32.

0000008f <go>:
      8f:	4c 31 36 20 63 64 65 67 72 65 67 34 00              L16 cdegreg4.

0000009c <lobat>:
      9c:	20 3e 3e 63 33 32 20 3e 67 33 32 20 3c 63 33 32      >>c32 >g32 <c32
      ac:	20 52 38 20 3c 63 38 20 52 38 20 3c 63 38 20 52      R8 <c8 R8 <c8 R
      bc:	38 20 3c 63 38 00                                   8 <c8.

000000c2 <levels>:
      c2:	00 00 00 00 00 00 00 1f 1f 1f 1f 1f 1f 1f           ..............

000000d0 <__ctors_start>:
      d0:	a7 1a       	sub	r10, r23

000000d2 <__ctors_end>:
      d2:	a8 1a       	sub	r10, r24

000000d4 <__dtors_end>:
      d4:	11 24       	eor	r1, r1
      d6:	1f be       	out	0x3f, r1	; 63
      d8:	cf ef       	ldi	r28, 0xFF	; 255
      da:	d8 e0       	ldi	r29, 0x08	; 8
      dc:	de bf       	out	0x3e, r29	; 62
      de:	cd bf       	out	0x3d, r28	; 61

000000e0 <__do_copy_data>:
      e0:	12 e0       	ldi	r17, 0x02	; 2
      e2:	a0 e0       	ldi	r26, 0x00	; 0
      e4:	b1 e0       	ldi	r27, 0x01	; 1
      e6:	e0 e0       	ldi	r30, 0x00	; 0
      e8:	fd e4       	ldi	r31, 0x4D	; 77
      ea:	02 c0       	rjmp	.+4      	; 0xf0 <__do_copy_data+0x10>
      ec:	05 90       	lpm	r0, Z+
      ee:	0d 92       	st	X+, r0
      f0:	a8 39       	cpi	r26, 0x98	; 152
      f2:	b1 07       	cpc	r27, r17
      f4:	d9 f7       	brne	.-10     	; 0xec <__do_copy_data+0xc>

000000f6 <__do_clear_bss>:
      f6:	16 e0       	ldi	r17, 0x06	; 6
      f8:	a8 e9       	ldi	r26, 0x98	; 152
      fa:	b2 e0       	ldi	r27, 0x02	; 2
      fc:	01 c0       	rjmp	.+2      	; 0x100 <.do_clear_bss_start>

000000fe <.do_clear_bss_loop>:
      fe:	1d 92       	st	X+, r1

00000100 <.do_clear_bss_start>:
     100:	af 3d       	cpi	r26, 0xDF	; 223
     102:	b1 07       	cpc	r27, r17
     104:	e1 f7       	brne	.-8      	; 0xfe <.do_clear_bss_loop>

00000106 <__do_global_ctors>:
     106:	10 e0       	ldi	r17, 0x00	; 0
     108:	c2 ed       	ldi	r28, 0xD2	; 210
     10a:	d0 e0       	ldi	r29, 0x00	; 0
     10c:	04 c0       	rjmp	.+8      	; 0x116 <__do_global_ctors+0x10>
     10e:	22 97       	sbiw	r28, 0x02	; 2
     110:	fe 01       	movw	r30, r28
     112:	0e 94 2a 22 	call	0x4454	; 0x4454 <__tablejump__>
     116:	c0 3d       	cpi	r28, 0xD0	; 208
     118:	d1 07       	cpc	r29, r17
     11a:	c9 f7       	brne	.-14     	; 0x10e <__do_global_ctors+0x8>
     11c:	0e 94 f9 01 	call	0x3f2	; 0x3f2 <main>
     120:	0c 94 73 26 	jmp	0x4ce6	; 0x4ce6 <__do_global_dtors>

00000124 <__bad_interrupt>:
     124:	0c 94 00 00 	jmp	0	; 0x0 <__vectors>

00000128 <_In00>:

*/

unsigned char (*_InBitsFunc[MaxInBits])(void);

unsigned char _In00(void) { return(_InBits[0]); };
     128:	80 91 bb 04 	lds	r24, 0x04BB
     12c:	08 95       	ret

0000012e <_In01>:
unsigned char _In01(void) { return(_InBits[1]); };
     12e:	80 91 bc 04 	lds	r24, 0x04BC
     132:	08 95       	ret

00000134 <_In02>:
unsigned char _In02(void) { return(_InBits[2]); };
     134:	80 91 bd 04 	lds	r24, 0x04BD
     138:	08 95       	ret

0000013a <_In03>:
unsigned char _In03(void) { return(_InBits[3]); };
     13a:	80 91 be 04 	lds	r24, 0x04BE
     13e:	08 95       	ret

00000140 <_In04>:
unsigned char _In04(void) { return(_InBits[4]); };
     140:	80 91 bf 04 	lds	r24, 0x04BF
     144:	08 95       	ret

00000146 <_In05>:
unsigned char _In05(void) { return(_InBits[5]); };
     146:	80 91 c0 04 	lds	r24, 0x04C0
     14a:	08 95       	ret

0000014c <_In06>:
unsigned char _In06(void) { return(_InBits[6]); };
     14c:	80 91 c1 04 	lds	r24, 0x04C1
     150:	08 95       	ret

00000152 <_In07>:
unsigned char _In07(void) { return(_InBits[7]); };
     152:	80 91 c2 04 	lds	r24, 0x04C2
     156:	08 95       	ret

00000158 <_In08>:
unsigned char _In08(void) { return(_InBits[8]); };
     158:	80 91 c3 04 	lds	r24, 0x04C3
     15c:	08 95       	ret

0000015e <_In09>:
unsigned char _In09(void) { return(_InBits[9]); };
     15e:	80 91 c4 04 	lds	r24, 0x04C4
     162:	08 95       	ret

00000164 <_pololu_atmel_studio_6_workaround>:
#define _POLOLU_ATMEL_STUDIO_6_WORKAROUND

static void __attribute__((used)) _pololu_atmel_studio_6_workaround(void)
{
    static volatile unsigned char w = 1;
    w++;
     164:	80 91 53 01 	lds	r24, 0x0153
     168:	8f 5f       	subi	r24, 0xFF	; 255
     16a:	80 93 53 01 	sts	0x0153, r24
}
     16e:	08 95       	ret

00000170 <load_custom_characters>:


// This function loads custom characters into the LCD.  Up to 8
// characters can be loaded; we use them for 7 levels of a bar graph.
void load_custom_characters()
{
     170:	cf 93       	push	r28
     172:	df 93       	push	r29
	lcd_load_custom_character(levels+0,0); // no offset, e.g. one bar
     174:	c2 ec       	ldi	r28, 0xC2	; 194
     176:	d0 e0       	ldi	r29, 0x00	; 0
     178:	ce 01       	movw	r24, r28
     17a:	60 e0       	ldi	r22, 0x00	; 0
     17c:	0e 94 e8 12 	call	0x25d0	; 0x25d0 <lcd_load_custom_character>
	lcd_load_custom_character(levels+1,1); // two bars
     180:	ce 01       	movw	r24, r28
     182:	01 96       	adiw	r24, 0x01	; 1
     184:	61 e0       	ldi	r22, 0x01	; 1
     186:	0e 94 e8 12 	call	0x25d0	; 0x25d0 <lcd_load_custom_character>
	lcd_load_custom_character(levels+2,2); // etc...
     18a:	ce 01       	movw	r24, r28
     18c:	02 96       	adiw	r24, 0x02	; 2
     18e:	62 e0       	ldi	r22, 0x02	; 2
     190:	0e 94 e8 12 	call	0x25d0	; 0x25d0 <lcd_load_custom_character>
	lcd_load_custom_character(levels+3,3);
     194:	ce 01       	movw	r24, r28
     196:	03 96       	adiw	r24, 0x03	; 3
     198:	63 e0       	ldi	r22, 0x03	; 3
     19a:	0e 94 e8 12 	call	0x25d0	; 0x25d0 <lcd_load_custom_character>
	lcd_load_custom_character(levels+4,4);
     19e:	ce 01       	movw	r24, r28
     1a0:	04 96       	adiw	r24, 0x04	; 4
     1a2:	64 e0       	ldi	r22, 0x04	; 4
     1a4:	0e 94 e8 12 	call	0x25d0	; 0x25d0 <lcd_load_custom_character>
	lcd_load_custom_character(levels+5,5);
     1a8:	ce 01       	movw	r24, r28
     1aa:	05 96       	adiw	r24, 0x05	; 5
     1ac:	65 e0       	ldi	r22, 0x05	; 5
     1ae:	0e 94 e8 12 	call	0x25d0	; 0x25d0 <lcd_load_custom_character>
	lcd_load_custom_character(levels+6,6);
     1b2:	ce 01       	movw	r24, r28
     1b4:	06 96       	adiw	r24, 0x06	; 6
     1b6:	66 e0       	ldi	r22, 0x06	; 6
     1b8:	0e 94 e8 12 	call	0x25d0	; 0x25d0 <lcd_load_custom_character>
	clear(); // the LCD must be cleared for the characters to take effect
     1bc:	0e 94 68 13 	call	0x26d0	; 0x26d0 <clear>
}
     1c0:	df 91       	pop	r29
     1c2:	cf 91       	pop	r28
     1c4:	08 95       	ret

000001c6 <display_readings>:

// This function displays the sensor readings using a bar graph.
void display_readings(const unsigned int *calibrated_values)
{
     1c6:	cf 92       	push	r12
     1c8:	df 92       	push	r13
     1ca:	ef 92       	push	r14
     1cc:	ff 92       	push	r15
     1ce:	0f 93       	push	r16
     1d0:	1f 93       	push	r17
     1d2:	df 93       	push	r29
     1d4:	cf 93       	push	r28
     1d6:	cd b7       	in	r28, 0x3d	; 61
     1d8:	de b7       	in	r29, 0x3e	; 62
     1da:	2b 97       	sbiw	r28, 0x0b	; 11
     1dc:	0f b6       	in	r0, 0x3f	; 63
     1de:	f8 94       	cli
     1e0:	de bf       	out	0x3e, r29	; 62
     1e2:	0f be       	out	0x3f, r0	; 63
     1e4:	cd bf       	out	0x3d, r28	; 61
	unsigned char i;

	for(i=0;i<5;i++) {
     1e6:	e8 2e       	mov	r14, r24
     1e8:	f9 2e       	mov	r15, r25
     1ea:	20 e0       	ldi	r18, 0x00	; 0
     1ec:	8e 01       	movw	r16, r28
     1ee:	0f 5f       	subi	r16, 0xFF	; 255
     1f0:	1f 4f       	sbci	r17, 0xFF	; 255
		const char display_characters[10] = {' ',0,0,1,2,3,4,5,6,255};

		// The variable c will have values from 0 to 9, since
		// calibrated values are in the range of 0 to 1000, and
		// 1000/101 is 9 with integer math.
		char c = display_characters[calibrated_values[i]/101];
     1f2:	85 e6       	ldi	r24, 0x65	; 101
     1f4:	c8 2e       	mov	r12, r24
     1f6:	d1 2c       	mov	r13, r1
	for(i=0;i<5;i++) {
		// Initialize the array of characters that we will use for the
		// graph.  Using the space, an extra copy of the one-bar
		// character, and character 255 (a full black box), we get 10
		// characters in the array.
		const char display_characters[10] = {' ',0,0,1,2,3,4,5,6,255};
     1f8:	d8 01       	movw	r26, r16
     1fa:	e4 e5       	ldi	r30, 0x54	; 84
     1fc:	f1 e0       	ldi	r31, 0x01	; 1
     1fe:	8a e0       	ldi	r24, 0x0A	; 10
     200:	01 90       	ld	r0, Z+
     202:	0d 92       	st	X+, r0
     204:	81 50       	subi	r24, 0x01	; 1
     206:	e1 f7       	brne	.-8      	; 0x200 <display_readings+0x3a>

		// The variable c will have values from 0 to 9, since
		// calibrated values are in the range of 0 to 1000, and
		// 1000/101 is 9 with integer math.
		char c = display_characters[calibrated_values[i]/101];
     208:	f7 01       	movw	r30, r14
     20a:	81 91       	ld	r24, Z+
     20c:	91 91       	ld	r25, Z+
     20e:	7f 01       	movw	r14, r30
     210:	b6 01       	movw	r22, r12
     212:	0e 94 8d 21 	call	0x431a	; 0x431a <__udivmodhi4>
     216:	60 0f       	add	r22, r16
     218:	71 1f       	adc	r23, r17

		// Display the bar graph character.
		print_character(c);
     21a:	fb 01       	movw	r30, r22
     21c:	80 81       	ld	r24, Z
     21e:	2b 87       	std	Y+11, r18	; 0x0b
     220:	0e 94 eb 12 	call	0x25d6	; 0x25d6 <print_character>
// This function displays the sensor readings using a bar graph.
void display_readings(const unsigned int *calibrated_values)
{
	unsigned char i;

	for(i=0;i<5;i++) {
     224:	2b 85       	ldd	r18, Y+11	; 0x0b
     226:	2f 5f       	subi	r18, 0xFF	; 255
     228:	25 30       	cpi	r18, 0x05	; 5
     22a:	31 f7       	brne	.-52     	; 0x1f8 <display_readings+0x32>
		char c = display_characters[calibrated_values[i]/101];

		// Display the bar graph character.
		print_character(c);
	}
}
     22c:	2b 96       	adiw	r28, 0x0b	; 11
     22e:	0f b6       	in	r0, 0x3f	; 63
     230:	f8 94       	cli
     232:	de bf       	out	0x3e, r29	; 62
     234:	0f be       	out	0x3f, r0	; 63
     236:	cd bf       	out	0x3d, r28	; 61
     238:	cf 91       	pop	r28
     23a:	df 91       	pop	r29
     23c:	1f 91       	pop	r17
     23e:	0f 91       	pop	r16
     240:	ff 90       	pop	r15
     242:	ef 90       	pop	r14
     244:	df 90       	pop	r13
     246:	cf 90       	pop	r12
     248:	08 95       	ret

0000024a <initialize>:

// Initializes the 3pi, displays a welcome message, calibrates, and
// plays the initial music.
void initialize()
{
     24a:	cf 93       	push	r28
     24c:	df 93       	push	r29
//	unsigned int sensors[5]; // an array to hold sensor values

	// This must be called at the beginning of 3pi code, to set up the
	// sensors.  We use a value of 2000 for the timeout, which
	// corresponds to 2000*0.4 us = 0.8 ms on our 20 MHz processor.
	pololu_3pi_init(2000);
     24e:	80 ed       	ldi	r24, 0xD0	; 208
     250:	97 e0       	ldi	r25, 0x07	; 7
     252:	0e 94 69 1a 	call	0x34d2	; 0x34d2 <pololu_3pi_init>
	load_custom_characters(); // load the custom characters
     256:	0e 94 b8 00 	call	0x170	; 0x170 <load_custom_characters>
	
	// Play welcome music and display a message
	print_from_program_space(welcome_line1);
     25a:	88 e6       	ldi	r24, 0x68	; 104
     25c:	90 e0       	ldi	r25, 0x00	; 0
     25e:	0e 94 93 13 	call	0x2726	; 0x2726 <print_from_program_space>
	lcd_goto_xy(0,1);
     262:	80 e0       	ldi	r24, 0x00	; 0
     264:	61 e0       	ldi	r22, 0x01	; 1
     266:	0e 94 56 14 	call	0x28ac	; 0x28ac <lcd_goto_xy>
	print_from_program_space(welcome_line2);
     26a:	81 e7       	ldi	r24, 0x71	; 113
     26c:	90 e0       	ldi	r25, 0x00	; 0
     26e:	0e 94 93 13 	call	0x2726	; 0x2726 <print_from_program_space>
	play_from_program_space(welcome);
     272:	85 e8       	ldi	r24, 0x85	; 133
     274:	90 e0       	ldi	r25, 0x00	; 0
     276:	0e 94 e1 11 	call	0x23c2	; 0x23c2 <play_from_program_space>
	delay_ms(1000);
     27a:	88 ee       	ldi	r24, 0xE8	; 232
     27c:	93 e0       	ldi	r25, 0x03	; 3
     27e:	0e 94 5a 19 	call	0x32b4	; 0x32b4 <delay_ms>

	clear();
     282:	0e 94 68 13 	call	0x26d0	; 0x26d0 <clear>
	print_from_program_space(demo_name_line1);
     286:	8b e7       	ldi	r24, 0x7B	; 123
     288:	90 e0       	ldi	r25, 0x00	; 0
     28a:	0e 94 93 13 	call	0x2726	; 0x2726 <print_from_program_space>
	lcd_goto_xy(0,1);
     28e:	80 e0       	ldi	r24, 0x00	; 0
     290:	61 e0       	ldi	r22, 0x01	; 1
     292:	0e 94 56 14 	call	0x28ac	; 0x28ac <lcd_goto_xy>
	print_from_program_space(demo_name_line2);
     296:	80 e8       	ldi	r24, 0x80	; 128
     298:	90 e0       	ldi	r25, 0x00	; 0
     29a:	0e 94 93 13 	call	0x2726	; 0x2726 <print_from_program_space>
	delay_ms(1000);
     29e:	88 ee       	ldi	r24, 0xE8	; 232
     2a0:	93 e0       	ldi	r25, 0x03	; 3
     2a2:	0e 94 5a 19 	call	0x32b4	; 0x32b4 <delay_ms>
int read_temperature_c(void);

unsigned int read_battery_millivolts_3pi(void);
static inline unsigned int read_battery_millivolts(void)
{
  return read_battery_millivolts_3pi();
     2a6:	0e 94 66 0e 	call	0x1ccc	; 0x1ccc <read_battery_millivolts_3pi>

	// Display battery voltage and wait for button press
	int bat = read_battery_millivolts();
	if (bat<4750) {
     2aa:	22 e1       	ldi	r18, 0x12	; 18
     2ac:	8e 38       	cpi	r24, 0x8E	; 142
     2ae:	92 07       	cpc	r25, r18
     2b0:	ec f4       	brge	.+58     	; 0x2ec <initialize+0xa2>
     2b2:	39 c0       	rjmp	.+114    	; 0x326 <initialize+0xdc>
     2b4:	0e 94 66 0e 	call	0x1ccc	; 0x1ccc <read_battery_millivolts_3pi>
     2b8:	ec 01       	movw	r28, r24
	
	while(!button_is_pressed(BUTTON_B))
	{
		bat = read_battery_millivolts();

		clear();
     2ba:	0e 94 68 13 	call	0x26d0	; 0x26d0 <clear>
		print_long(bat);
     2be:	be 01       	movw	r22, r28
     2c0:	88 27       	eor	r24, r24
     2c2:	77 fd       	sbrc	r23, 7
     2c4:	80 95       	com	r24
     2c6:	98 2f       	mov	r25, r24
     2c8:	0e 94 f3 13 	call	0x27e6	; 0x27e6 <print_long>
		print("mV");
     2cc:	80 e0       	ldi	r24, 0x00	; 0
     2ce:	91 e0       	ldi	r25, 0x01	; 1
     2d0:	0e 94 82 13 	call	0x2704	; 0x2704 <print>
		lcd_goto_xy(0,1);
     2d4:	80 e0       	ldi	r24, 0x00	; 0
     2d6:	61 e0       	ldi	r22, 0x01	; 1
     2d8:	0e 94 56 14 	call	0x28ac	; 0x28ac <lcd_goto_xy>
		print("Press B");
     2dc:	83 e0       	ldi	r24, 0x03	; 3
     2de:	91 e0       	ldi	r25, 0x01	; 1
     2e0:	0e 94 82 13 	call	0x2704	; 0x2704 <print>

		delay_ms(100);
     2e4:	84 e6       	ldi	r24, 0x64	; 100
     2e6:	90 e0       	ldi	r25, 0x00	; 0
     2e8:	0e 94 5a 19 	call	0x32b4	; 0x32b4 <delay_ms>
	if (bat<4750) {
		play_from_program_space(lobat);
		while(is_playing());
    }
	
	while(!button_is_pressed(BUTTON_B))
     2ec:	80 e1       	ldi	r24, 0x10	; 16
     2ee:	0e 94 8b 17 	call	0x2f16	; 0x2f16 <button_is_pressed>
     2f2:	88 23       	and	r24, r24
     2f4:	f9 f2       	breq	.-66     	; 0x2b4 <initialize+0x6a>
		delay_ms(100);
	}

	// Always wait for the button to be released so that 3pi doesn't
	// start moving until your hand is away from it.
	print("End Ini!");		
     2f6:	8b e0       	ldi	r24, 0x0B	; 11
     2f8:	91 e0       	ldi	r25, 0x01	; 1
     2fa:	0e 94 82 13 	call	0x2704	; 0x2704 <print>
	wait_for_button_release(BUTTON_B);
     2fe:	80 e1       	ldi	r24, 0x10	; 16
     300:	0e 94 6b 17 	call	0x2ed6	; 0x2ed6 <wait_for_button_release>
	delay_ms(1000);
     304:	88 ee       	ldi	r24, 0xE8	; 232
     306:	93 e0       	ldi	r25, 0x03	; 3
     308:	0e 94 5a 19 	call	0x32b4	; 0x32b4 <delay_ms>
	clear();
     30c:	0e 94 68 13 	call	0x26d0	; 0x26d0 <clear>

	// Play music and wait for it to finish before we start driving.
	play_from_program_space("C16 R16 >C16 R16 >>C16 R16");
     310:	84 e1       	ldi	r24, 0x14	; 20
     312:	91 e0       	ldi	r25, 0x01	; 1
     314:	0e 94 e1 11 	call	0x23c2	; 0x23c2 <play_from_program_space>
	while(is_playing());
     318:	0e 94 c0 11 	call	0x2380	; 0x2380 <is_playing>
     31c:	88 23       	and	r24, r24
     31e:	e1 f7       	brne	.-8      	; 0x318 <initialize+0xce>
}
     320:	df 91       	pop	r29
     322:	cf 91       	pop	r28
     324:	08 95       	ret
	delay_ms(1000);

	// Display battery voltage and wait for button press
	int bat = read_battery_millivolts();
	if (bat<4750) {
		play_from_program_space(lobat);
     326:	8c e9       	ldi	r24, 0x9C	; 156
     328:	90 e0       	ldi	r25, 0x00	; 0
     32a:	0e 94 e1 11 	call	0x23c2	; 0x23c2 <play_from_program_space>
		while(is_playing());
     32e:	0e 94 c0 11 	call	0x2380	; 0x2380 <is_playing>
     332:	88 23       	and	r24, r24
     334:	e1 f7       	brne	.-8      	; 0x32e <initialize+0xe4>
     336:	da cf       	rjmp	.-76     	; 0x2ec <initialize+0xa2>

00000338 <calibrate>:
}
	
unsigned int sensors[5]; // GLOBAL ?

void calibrate()
{
     338:	cf 93       	push	r28
     33a:	df 93       	push	r29
	unsigned int counter; // used as a simple timer

	// Auto-calibration: turn right and left while calibrating the sensors
	
	print("Ini Calb");	
     33c:	8f e2       	ldi	r24, 0x2F	; 47
     33e:	91 e0       	ldi	r25, 0x01	; 1
     340:	0e 94 82 13 	call	0x2704	; 0x2704 <print>
     344:	cc ee       	ldi	r28, 0xEC	; 236
     346:	df ef       	ldi	r29, 0xFF	; 255
     348:	11 c0       	rjmp	.+34     	; 0x36c <calibrate+0x34>

	for(counter=0;counter<80;counter++)
	{
		if(counter < 20 || counter >= 60)
			set_motors(40,-40);
     34a:	88 e2       	ldi	r24, 0x28	; 40
     34c:	90 e0       	ldi	r25, 0x00	; 0
     34e:	68 ed       	ldi	r22, 0xD8	; 216
     350:	7f ef       	ldi	r23, 0xFF	; 255
     352:	0e 94 13 17 	call	0x2e26	; 0x2e26 <set_motors>
		// This function records a set of sensor readings and keeps
		// track of the minimum and maximum values encountered.  The
		// IR_EMITTERS_ON argument means that the IR LEDs will be
		// turned on during the reading, which is usually what you
		// want.
		calibrate_line_sensors(IR_EMITTERS_ON);
     356:	81 e0       	ldi	r24, 0x01	; 1
     358:	0e 94 fa 19 	call	0x33f4	; 0x33f4 <calibrate_line_sensors>

		// Since our counter runs to 80, the total delay will be
		// 80*20 = 1600 ms.
		delay_ms(20);
     35c:	84 e1       	ldi	r24, 0x14	; 20
     35e:	90 e0       	ldi	r25, 0x00	; 0
     360:	0e 94 5a 19 	call	0x32b4	; 0x32b4 <delay_ms>
     364:	21 96       	adiw	r28, 0x01	; 1

	// Auto-calibration: turn right and left while calibrating the sensors
	
	print("Ini Calb");	

	for(counter=0;counter<80;counter++)
     366:	cc 33       	cpi	r28, 0x3C	; 60
     368:	d1 05       	cpc	r29, r1
     36a:	51 f0       	breq	.+20     	; 0x380 <calibrate+0x48>
	{
		if(counter < 20 || counter >= 60)
     36c:	c8 32       	cpi	r28, 0x28	; 40
     36e:	d1 05       	cpc	r29, r1
     370:	60 f7       	brcc	.-40     	; 0x34a <calibrate+0x12>
			set_motors(40,-40);
		else
			set_motors(-40,40);
     372:	88 ed       	ldi	r24, 0xD8	; 216
     374:	9f ef       	ldi	r25, 0xFF	; 255
     376:	68 e2       	ldi	r22, 0x28	; 40
     378:	70 e0       	ldi	r23, 0x00	; 0
     37a:	0e 94 13 17 	call	0x2e26	; 0x2e26 <set_motors>
     37e:	eb cf       	rjmp	.-42     	; 0x356 <calibrate+0x1e>
		// Since our counter runs to 80, the total delay will be
		// 80*20 = 1600 ms.
		delay_ms(20);
	}

	set_motors(0,0);
     380:	80 e0       	ldi	r24, 0x00	; 0
     382:	90 e0       	ldi	r25, 0x00	; 0
     384:	60 e0       	ldi	r22, 0x00	; 0
     386:	70 e0       	ldi	r23, 0x00	; 0
     388:	0e 94 13 17 	call	0x2e26	; 0x2e26 <set_motors>

	// Display calibrated values as a bar graph.
	while(!button_is_pressed(BUTTON_B))
     38c:	19 c0       	rjmp	.+50     	; 0x3c0 <calibrate+0x88>
	{
		// Read the sensor values and get the position measurement.
		unsigned int position = read_line(sensors,IR_EMITTERS_ON);
     38e:	8b ec       	ldi	r24, 0xCB	; 203
     390:	96 e0       	ldi	r25, 0x06	; 6
     392:	61 e0       	ldi	r22, 0x01	; 1
     394:	0e 94 0d 1a 	call	0x341a	; 0x341a <read_line>
     398:	ec 01       	movw	r28, r24
		// Display the position measurement, which will go from 0
		// (when the leftmost sensor is over the line) to 4000 (when
		// the rightmost sensor is over the line) on the 3pi, along
		// with a bar graph of the sensor readings.  This allows you
		// to make sure the robot is ready to go.
		clear();
     39a:	0e 94 68 13 	call	0x26d0	; 0x26d0 <clear>
		print_long(position);
     39e:	be 01       	movw	r22, r28
     3a0:	80 e0       	ldi	r24, 0x00	; 0
     3a2:	90 e0       	ldi	r25, 0x00	; 0
     3a4:	0e 94 f3 13 	call	0x27e6	; 0x27e6 <print_long>
		lcd_goto_xy(0,1);
     3a8:	80 e0       	ldi	r24, 0x00	; 0
     3aa:	61 e0       	ldi	r22, 0x01	; 1
     3ac:	0e 94 56 14 	call	0x28ac	; 0x28ac <lcd_goto_xy>
		display_readings(sensors);
     3b0:	8b ec       	ldi	r24, 0xCB	; 203
     3b2:	96 e0       	ldi	r25, 0x06	; 6
     3b4:	0e 94 e3 00 	call	0x1c6	; 0x1c6 <display_readings>

		delay_ms(100);
     3b8:	84 e6       	ldi	r24, 0x64	; 100
     3ba:	90 e0       	ldi	r25, 0x00	; 0
     3bc:	0e 94 5a 19 	call	0x32b4	; 0x32b4 <delay_ms>
	}

	set_motors(0,0);

	// Display calibrated values as a bar graph.
	while(!button_is_pressed(BUTTON_B))
     3c0:	80 e1       	ldi	r24, 0x10	; 16
     3c2:	0e 94 8b 17 	call	0x2f16	; 0x2f16 <button_is_pressed>
     3c6:	88 23       	and	r24, r24
     3c8:	11 f3       	breq	.-60     	; 0x38e <calibrate+0x56>
		lcd_goto_xy(0,1);
		display_readings(sensors);

		delay_ms(100);
	}
	wait_for_button_release(BUTTON_B);
     3ca:	80 e1       	ldi	r24, 0x10	; 16
     3cc:	0e 94 6b 17 	call	0x2ed6	; 0x2ed6 <wait_for_button_release>

	clear();
     3d0:	0e 94 68 13 	call	0x26d0	; 0x26d0 <clear>

	print("End Calb");	
     3d4:	88 e3       	ldi	r24, 0x38	; 56
     3d6:	91 e0       	ldi	r25, 0x01	; 1
     3d8:	0e 94 82 13 	call	0x2704	; 0x2704 <print>

	// Play music and wait for it to finish before we start driving.
	play_from_program_space(go);
     3dc:	8f e8       	ldi	r24, 0x8F	; 143
     3de:	90 e0       	ldi	r25, 0x00	; 0
     3e0:	0e 94 e1 11 	call	0x23c2	; 0x23c2 <play_from_program_space>
	while(is_playing());
     3e4:	0e 94 c0 11 	call	0x2380	; 0x2380 <is_playing>
     3e8:	88 23       	and	r24, r24
     3ea:	e1 f7       	brne	.-8      	; 0x3e4 <calibrate+0xac>
}
     3ec:	df 91       	pop	r29
     3ee:	cf 91       	pop	r28
     3f0:	08 95       	ret

000003f2 <main>:
// ~~~~~~~~~~~~~~~~~~~~~~~~~~~~~~~~~~

// This is the main function, where the code starts.  All C programs
// must have a main() function defined somewhere.
int main()
{
     3f2:	2f 92       	push	r2
     3f4:	3f 92       	push	r3
     3f6:	4f 92       	push	r4
     3f8:	5f 92       	push	r5
     3fa:	6f 92       	push	r6
     3fc:	7f 92       	push	r7
     3fe:	8f 92       	push	r8
     400:	9f 92       	push	r9
     402:	af 92       	push	r10
     404:	bf 92       	push	r11
     406:	cf 92       	push	r12
     408:	df 92       	push	r13
     40a:	ef 92       	push	r14
     40c:	ff 92       	push	r15
     40e:	0f 93       	push	r16
     410:	1f 93       	push	r17
     412:	df 93       	push	r29
     414:	cf 93       	push	r28
     416:	00 d0       	rcall	.+0      	; 0x418 <main+0x26>
     418:	cd b7       	in	r28, 0x3d	; 61
     41a:	de b7       	in	r29, 0x3e	; 62
	unsigned int last10ms=0,now10ms=0;
	unsigned int position=0;
	

	// set up the 3pi
	initialize();  
     41c:	0e 94 25 01 	call	0x24a	; 0x24a <initialize>
	// will NOT calibrate track (IR Sensors) => use calibrate()
	_SysWords[0] = 0;   // FLAG boot situation
     420:	10 92 8c 03 	sts	0x038C, r1
     424:	10 92 8b 03 	sts	0x038B, r1
	lcd_init_printf_with_dimensions(8,2);
     428:	88 e0       	ldi	r24, 0x08	; 8
     42a:	62 e0       	ldi	r22, 0x02	; 2
     42c:	0e 94 f7 15 	call	0x2bee	; 0x2bee <lcd_init_printf_with_dimensions>

_InBitsFunc[0]=_In00;
     430:	84 e9       	ldi	r24, 0x94	; 148
     432:	90 e0       	ldi	r25, 0x00	; 0
     434:	90 93 ec 04 	sts	0x04EC, r25
     438:	80 93 eb 04 	sts	0x04EB, r24
_InBitsFunc[1]=_In01;
     43c:	87 e9       	ldi	r24, 0x97	; 151
     43e:	90 e0       	ldi	r25, 0x00	; 0
     440:	90 93 ee 04 	sts	0x04EE, r25
     444:	80 93 ed 04 	sts	0x04ED, r24
_InBitsFunc[2]=_In02;
     448:	8a e9       	ldi	r24, 0x9A	; 154
     44a:	90 e0       	ldi	r25, 0x00	; 0
     44c:	90 93 f0 04 	sts	0x04F0, r25
     450:	80 93 ef 04 	sts	0x04EF, r24
_InBitsFunc[3]=_In03;
     454:	8d e9       	ldi	r24, 0x9D	; 157
     456:	90 e0       	ldi	r25, 0x00	; 0
     458:	90 93 f2 04 	sts	0x04F2, r25
     45c:	80 93 f1 04 	sts	0x04F1, r24
_InBitsFunc[4]=_In04;
     460:	80 ea       	ldi	r24, 0xA0	; 160
     462:	90 e0       	ldi	r25, 0x00	; 0
     464:	90 93 f4 04 	sts	0x04F4, r25
     468:	80 93 f3 04 	sts	0x04F3, r24
_InBitsFunc[5]=_In05;
     46c:	83 ea       	ldi	r24, 0xA3	; 163
     46e:	90 e0       	ldi	r25, 0x00	; 0
     470:	90 93 f6 04 	sts	0x04F6, r25
     474:	80 93 f5 04 	sts	0x04F5, r24
_InBitsFunc[6]=_In06;
     478:	86 ea       	ldi	r24, 0xA6	; 166
     47a:	90 e0       	ldi	r25, 0x00	; 0
     47c:	90 93 f8 04 	sts	0x04F8, r25
     480:	80 93 f7 04 	sts	0x04F7, r24
_InBitsFunc[7]=_In07;
     484:	89 ea       	ldi	r24, 0xA9	; 169
     486:	90 e0       	ldi	r25, 0x00	; 0
     488:	90 93 fa 04 	sts	0x04FA, r25
     48c:	80 93 f9 04 	sts	0x04F9, r24
_InBitsFunc[8]=_In08;
     490:	8c ea       	ldi	r24, 0xAC	; 172
     492:	90 e0       	ldi	r25, 0x00	; 0
     494:	90 93 fc 04 	sts	0x04FC, r25
     498:	80 93 fb 04 	sts	0x04FB, r24
_InBitsFunc[9]=_In09;
     49c:	8f ea       	ldi	r24, 0xAF	; 175
     49e:	90 e0       	ldi	r25, 0x00	; 0
     4a0:	90 93 fe 04 	sts	0x04FE, r25
     4a4:	80 93 fd 04 	sts	0x04FD, r24
	
	// ~~~~~~~~~~~~~~~~~~~~~~~~~~~~~~~~~~
	#include "c_inits.c"
	// ~~~~~~~~~~~~~~~~~~~~~~~~~~~~~~~~~~
	
    last10ms=get_ms()/10;
     4a8:	0e 94 94 19 	call	0x3328	; 0x3328 <get_ms>
     4ac:	2a e0       	ldi	r18, 0x0A	; 10
     4ae:	30 e0       	ldi	r19, 0x00	; 0
     4b0:	40 e0       	ldi	r20, 0x00	; 0
     4b2:	50 e0       	ldi	r21, 0x00	; 0
     4b4:	0e 94 b4 21 	call	0x4368	; 0x4368 <__udivmodsi4>
     4b8:	89 01       	movw	r16, r18
	
	// This is the "main loop" - it will run forever.
	while(1)
	{
		position = read_line(sensors,IR_EMITTERS_ON);   // Automatic
     4ba:	8b ec       	ldi	r24, 0xCB	; 203
     4bc:	96 e0       	ldi	r25, 0x06	; 6
     4be:	61 e0       	ldi	r22, 0x01	; 1
     4c0:	0e 94 0d 1a 	call	0x341a	; 0x341a <read_line>
     4c4:	9a 83       	std	Y+2, r25	; 0x02
     4c6:	89 83       	std	Y+1, r24	; 0x01
		
		_InBits[0]=button_is_pressed(BUTTON_A) ? 1 : 0;
     4c8:	82 e0       	ldi	r24, 0x02	; 2
     4ca:	0e 94 8b 17 	call	0x2f16	; 0x2f16 <button_is_pressed>
     4ce:	91 e0       	ldi	r25, 0x01	; 1
     4d0:	88 23       	and	r24, r24
     4d2:	09 f4       	brne	.+2      	; 0x4d6 <main+0xe4>
     4d4:	90 e0       	ldi	r25, 0x00	; 0
     4d6:	90 93 bb 04 	sts	0x04BB, r25
		_InBits[1]=button_is_pressed(BUTTON_B) ? 1 : 0;
     4da:	80 e1       	ldi	r24, 0x10	; 16
     4dc:	0e 94 8b 17 	call	0x2f16	; 0x2f16 <button_is_pressed>
     4e0:	91 e0       	ldi	r25, 0x01	; 1
     4e2:	88 23       	and	r24, r24
     4e4:	09 f4       	brne	.+2      	; 0x4e8 <main+0xf6>
     4e6:	90 e0       	ldi	r25, 0x00	; 0
     4e8:	90 93 bc 04 	sts	0x04BC, r25
		_InBits[2]=button_is_pressed(BUTTON_C) ? 1 : 0;
     4ec:	80 e2       	ldi	r24, 0x20	; 32
     4ee:	0e 94 8b 17 	call	0x2f16	; 0x2f16 <button_is_pressed>
     4f2:	91 e0       	ldi	r25, 0x01	; 1
     4f4:	88 23       	and	r24, r24
     4f6:	09 f4       	brne	.+2      	; 0x4fa <main+0x108>
     4f8:	90 e0       	ldi	r25, 0x00	; 0
     4fa:	90 93 bd 04 	sts	0x04BD, r25

		now10ms=get_ms()/10.0;
     4fe:	0e 94 94 19 	call	0x3328	; 0x3328 <get_ms>
     502:	0e 94 3b 0a 	call	0x1476	; 0x1476 <__floatunsisf>
     506:	20 e0       	ldi	r18, 0x00	; 0
     508:	30 e0       	ldi	r19, 0x00	; 0
     50a:	40 e2       	ldi	r20, 0x20	; 32
     50c:	51 e4       	ldi	r21, 0x41	; 65
     50e:	0e 94 ab 08 	call	0x1156	; 0x1156 <__divsf3>
     512:	0e 94 dd 05 	call	0xbba	; 0xbba <__fixunssfsi>
     516:	1b 01       	movw	r2, r22
		if (now10ms!=last10ms) {
     518:	60 17       	cp	r22, r16
     51a:	71 07       	cpc	r23, r17
     51c:	09 f4       	brne	.+2      	; 0x520 <main+0x12e>
     51e:	2f c3       	rjmp	.+1630   	; 0xb7e <__stack+0x27f>
		  last10ms=now10ms;
		  _SysBits[16]=1;
     520:	81 e0       	ldi	r24, 0x01	; 1
     522:	80 93 1b 03 	sts	0x031B, r24
////////////////////////////////////////////////////////////
///////////// If boot => Set Initial Steps /////////////////
//####################### Page 3 ########################//
////////////////////////////////////////////////////////////

  if( (_SysWords[0]==0) ) {
     526:	80 91 8b 03 	lds	r24, 0x038B
     52a:	90 91 8c 03 	lds	r25, 0x038C
  };
if( (_SysWords[0]>0) ) {  // ** Prevent evolution in initial cycle
     52e:	80 91 8b 03 	lds	r24, 0x038B
     532:	90 91 8c 03 	lds	r25, 0x038C
////////////////////////////////////////////////////////////
////////// Unset all Outputs (once for all pages) //////////
//####################### Page 3 ########################//
////////////////////////////////////////////////////////////

  _OutBits[0]=0;
     536:	10 92 8b 04 	sts	0x048B, r1
  _OutBits[1]=0;
     53a:	10 92 8c 04 	sts	0x048C, r1
  _OutBits[2]=0;
     53e:	10 92 8d 04 	sts	0x048D, r1
  _OutBits[3]=0;
     542:	10 92 8e 04 	sts	0x048E, r1
  _OutBits[4]=0;
     546:	10 92 8f 04 	sts	0x048F, r1
  _OutBits[5]=0;
     54a:	10 92 90 04 	sts	0x0490, r1
  _OutBits[6]=0;
     54e:	10 92 91 04 	sts	0x0491, r1
  _OutBits[7]=0;
     552:	10 92 92 04 	sts	0x0492, r1
  _OutBits[8]=0;
     556:	10 92 93 04 	sts	0x0493, r1
  _OutBits[9]=0;
     55a:	10 92 94 04 	sts	0x0494, r1
  _OutBits[10]=0;
     55e:	10 92 95 04 	sts	0x0495, r1
  _OutBits[11]=0;
     562:	10 92 96 04 	sts	0x0496, r1
  _OutBits[12]=0;
     566:	10 92 97 04 	sts	0x0497, r1
  _OutBits[13]=0;
     56a:	10 92 98 04 	sts	0x0498, r1
  _OutBits[14]=0;
     56e:	10 92 99 04 	sts	0x0499, r1
  _OutBits[15]=0;
     572:	10 92 9a 04 	sts	0x049A, r1
  _OutBits[16]=0;
     576:	10 92 9b 04 	sts	0x049B, r1
  _OutBits[17]=0;
     57a:	10 92 9c 04 	sts	0x049C, r1
  _OutBits[18]=0;
     57e:	10 92 9d 04 	sts	0x049D, r1
  _OutBits[19]=0;
     582:	10 92 9e 04 	sts	0x049E, r1
  _OutBits[20]=0;
     586:	10 92 9f 04 	sts	0x049F, r1
  _OutBits[21]=0;
     58a:	10 92 a0 04 	sts	0x04A0, r1
  _OutBits[22]=0;
     58e:	10 92 a1 04 	sts	0x04A1, r1
  _OutBits[23]=0;
     592:	10 92 a2 04 	sts	0x04A2, r1
  _OutBits[24]=0;
     596:	10 92 a3 04 	sts	0x04A3, r1
  _OutBits[25]=0;
     59a:	10 92 a4 04 	sts	0x04A4, r1
  _OutBits[26]=0;
     59e:	10 92 a5 04 	sts	0x04A5, r1
  _OutBits[27]=0;
     5a2:	10 92 a6 04 	sts	0x04A6, r1
  _OutBits[28]=0;
     5a6:	10 92 a7 04 	sts	0x04A7, r1
  _OutBits[29]=0;
     5aa:	10 92 a8 04 	sts	0x04A8, r1
  _OutBits[30]=0;
     5ae:	10 92 a9 04 	sts	0x04A9, r1
  _OutBits[31]=0;
     5b2:	10 92 aa 04 	sts	0x04AA, r1
  _OutBits[32]=0;
     5b6:	10 92 ab 04 	sts	0x04AB, r1
  _OutBits[33]=0;
     5ba:	10 92 ac 04 	sts	0x04AC, r1
  _OutBits[34]=0;
     5be:	10 92 ad 04 	sts	0x04AD, r1
  _OutBits[35]=0;
     5c2:	10 92 ae 04 	sts	0x04AE, r1
  _OutBits[36]=0;
     5c6:	10 92 af 04 	sts	0x04AF, r1
  _OutBits[37]=0;
     5ca:	10 92 b0 04 	sts	0x04B0, r1
  _OutBits[38]=0;
     5ce:	10 92 b1 04 	sts	0x04B1, r1
  _OutBits[39]=0;
     5d2:	10 92 b2 04 	sts	0x04B2, r1
  _OutBits[40]=0;
     5d6:	10 92 b3 04 	sts	0x04B3, r1
  _OutBits[41]=0;
     5da:	10 92 b4 04 	sts	0x04B4, r1
  _OutBits[42]=0;
     5de:	10 92 b5 04 	sts	0x04B5, r1
  _OutBits[43]=0;
     5e2:	10 92 b6 04 	sts	0x04B6, r1
  _OutBits[44]=0;
     5e6:	10 92 b7 04 	sts	0x04B7, r1
  _OutBits[45]=0;
     5ea:	10 92 b8 04 	sts	0x04B8, r1
  _OutBits[46]=0;
     5ee:	10 92 b9 04 	sts	0x04B9, r1
  _OutBits[47]=0;
     5f2:	10 92 ba 04 	sts	0x04BA, r1
////////////////////////////////////////////////////////////
///////////// If boot => Set Initial Steps /////////////////
//####################### Page 2 ########################//
////////////////////////////////////////////////////////////

  if( (_SysWords[0]==0) ) {
     5f6:	80 91 8b 03 	lds	r24, 0x038B
     5fa:	90 91 8c 03 	lds	r25, 0x038C
  };
if( (_SysWords[0]>0) ) {  // ** Prevent evolution in initial cycle
     5fe:	80 91 8b 03 	lds	r24, 0x038B
     602:	90 91 8c 03 	lds	r25, 0x038C
////////////////////////////////////////////////////////////
///////////// If boot => Set Initial Steps /////////////////
//####################### Page 1 ########################//
////////////////////////////////////////////////////////////

  if( (_SysWords[0]==0) ) {
     606:	80 91 8b 03 	lds	r24, 0x038B
     60a:	90 91 8c 03 	lds	r25, 0x038C
  };
if( (_SysWords[0]>0) ) {  // ** Prevent evolution in initial cycle
     60e:	80 91 8b 03 	lds	r24, 0x038B
     612:	90 91 8c 03 	lds	r25, 0x038C
////////////////////////////////////////////////////////////
////////////////////////// Zone1 ///////////////////////////
//####################### Page 0 ########################//
////////////////////////////////////////////////////////////

 if( (_SysWords[0]==0) ) {
     616:	80 91 8b 03 	lds	r24, 0x038B
     61a:	90 91 8c 03 	lds	r25, 0x038C
     61e:	00 97       	sbiw	r24, 0x00	; 0
     620:	09 f4       	brne	.+2      	; 0x624 <main+0x232>
     622:	58 c2       	rjmp	.+1200   	; 0xad4 <__stack+0x1d5>
////////////////////////////////////////////////////////////
///////////// If boot => Set Initial Steps /////////////////
//####################### Page 0 ########################//
////////////////////////////////////////////////////////////

  if( (_SysWords[0]==0) ) {
     624:	80 91 8b 03 	lds	r24, 0x038B
     628:	90 91 8c 03 	lds	r25, 0x038C
     62c:	00 97       	sbiw	r24, 0x00	; 0
     62e:	19 f4       	brne	.+6      	; 0x636 <main+0x244>
  // ObjIdx=0 => INI_Step "X1"
    _MemBits[0] = 1;
     630:	81 e0       	ldi	r24, 0x01	; 1
     632:	80 93 4b 06 	sts	0x064B, r24
  };
if( (_SysWords[0]>0) ) {  // ** Prevent evolution in initial cycle
     636:	80 91 8b 03 	lds	r24, 0x038B
     63a:	90 91 8c 03 	lds	r25, 0x038C
     63e:	00 97       	sbiw	r24, 0x00	; 0
     640:	f9 f0       	breq	.+62     	; 0x680 <main+0x28e>
////////////////////////////////////////////////////////////

// ObjIdx=1 => Transition "t0"
  // Steps Above: id=0 => X1 ;
  // Steps Below: id=2 => X2 ;
  _MemBits[1] =  _MemBits[0] &&  (_InBits[1]);
     642:	80 91 4b 06 	lds	r24, 0x064B
     646:	88 23       	and	r24, r24
     648:	09 f4       	brne	.+2      	; 0x64c <main+0x25a>
     64a:	43 c1       	rjmp	.+646    	; 0x8d2 <main+0x4e0>
     64c:	90 91 bc 04 	lds	r25, 0x04BC
#include "C_Header.c"
// ~~~~~~~~~~~~~~~~~~~~~~~~~~~~~~~~~~

// This is the main function, where the code starts.  All C programs
// must have a main() function defined somewhere.
int main()
     650:	81 e0       	ldi	r24, 0x01	; 1
     652:	99 23       	and	r25, r25
     654:	09 f4       	brne	.+2      	; 0x658 <main+0x266>
     656:	3d c1       	rjmp	.+634    	; 0x8d2 <main+0x4e0>
     658:	80 93 4c 06 	sts	0x064C, r24
// ObjIdx=3 => Transition "t1"
  // Steps Above: id=2 => X2 ;
  // Steps Below: id=0 => X1 ;
  _MemBits[3] =  _MemBits[2] &&  (_InBits[0] || _InBits[2]);
     65c:	80 91 4d 06 	lds	r24, 0x064D
     660:	88 23       	and	r24, r24
     662:	09 f4       	brne	.+2      	; 0x666 <main+0x274>
     664:	3e c1       	rjmp	.+636    	; 0x8e2 <main+0x4f0>
     666:	80 91 bb 04 	lds	r24, 0x04BB
     66a:	88 23       	and	r24, r24
     66c:	09 f0       	breq	.+2      	; 0x670 <main+0x27e>
     66e:	9f c2       	rjmp	.+1342   	; 0xbae <__stack+0x2af>
     670:	90 91 bd 04 	lds	r25, 0x04BD
     674:	81 e0       	ldi	r24, 0x01	; 1
     676:	99 23       	and	r25, r25
     678:	09 f4       	brne	.+2      	; 0x67c <main+0x28a>
     67a:	33 c1       	rjmp	.+614    	; 0x8e2 <main+0x4f0>
     67c:	80 93 4e 06 	sts	0x064E, r24
////////////////////////////////////////////////////////////

// ObjIdx=1 => Transition "t0"
  // Steps Above: id=0 => X1 ;
  // Steps Below: id=2 => X2 ;
  if( (_MemBits[1]) ) {
     680:	80 91 4c 06 	lds	r24, 0x064C
     684:	88 23       	and	r24, r24
     686:	11 f0       	breq	.+4      	; 0x68c <main+0x29a>
     _MemBits[0]=0; 
     688:	10 92 4b 06 	sts	0x064B, r1
  };
// ObjIdx=3 => Transition "t1"
  // Steps Above: id=2 => X2 ;
  // Steps Below: id=0 => X1 ;
  if( (_MemBits[3]) ) {
     68c:	80 91 4e 06 	lds	r24, 0x064E
     690:	88 23       	and	r24, r24
     692:	11 f0       	breq	.+4      	; 0x698 <main+0x2a6>
     _MemBits[2]=0; 
     694:	10 92 4d 06 	sts	0x064D, r1
////////////////////////////////////////////////////////////

// ObjIdx=1 => Transition "t0"
  // Steps Above: id=0 => X1 ;
  // Steps Below: id=2 => X2 ;
  if( (_MemBits[1]) ) { 
     698:	80 91 4c 06 	lds	r24, 0x064C
     69c:	88 23       	and	r24, r24
     69e:	39 f0       	breq	.+14     	; 0x6ae <main+0x2bc>
    _MemBits[2] = 1; 
     6a0:	81 e0       	ldi	r24, 0x01	; 1
     6a2:	80 93 4d 06 	sts	0x064D, r24
    _MemWords[2] = 0; 
     6a6:	10 92 50 05 	sts	0x0550, r1
     6aa:	10 92 4f 05 	sts	0x054F, r1
  };
// ObjIdx=3 => Transition "t1"
  // Steps Above: id=2 => X2 ;
  // Steps Below: id=0 => X1 ;
  if( (_MemBits[3]) ) { 
     6ae:	80 91 4e 06 	lds	r24, 0x064E
     6b2:	88 23       	and	r24, r24
     6b4:	39 f0       	breq	.+14     	; 0x6c4 <main+0x2d2>
    _MemBits[0] = 1; 
     6b6:	81 e0       	ldi	r24, 0x01	; 1
     6b8:	80 93 4b 06 	sts	0x064B, r24
    _MemWords[0] = 0; 
     6bc:	10 92 4c 05 	sts	0x054C, r1
     6c0:	10 92 4b 05 	sts	0x054B, r1
///// If step active increment MW timer of step @ %s16 /////
//####################### Page 0 ########################//
////////////////////////////////////////////////////////////

  // ObjIdx=0 => Step "X1"
  if( (_SysBits[16]) && (_MemBits[0]) ) { 
     6c4:	80 91 1b 03 	lds	r24, 0x031B
     6c8:	88 23       	and	r24, r24
     6ca:	69 f0       	breq	.+26     	; 0x6e6 <main+0x2f4>
     6cc:	80 91 4b 06 	lds	r24, 0x064B
     6d0:	88 23       	and	r24, r24
     6d2:	49 f0       	breq	.+18     	; 0x6e6 <main+0x2f4>
    _MemWords[0] = _MemWords[0]+1;
     6d4:	80 91 4b 05 	lds	r24, 0x054B
     6d8:	90 91 4c 05 	lds	r25, 0x054C
     6dc:	01 96       	adiw	r24, 0x01	; 1
     6de:	90 93 4c 05 	sts	0x054C, r25
     6e2:	80 93 4b 05 	sts	0x054B, r24
  };
  // ObjIdx=2 => Step "X2"
  if( (_SysBits[16]) && (_MemBits[2]) ) { 
     6e6:	80 91 1b 03 	lds	r24, 0x031B
     6ea:	88 23       	and	r24, r24
     6ec:	69 f0       	breq	.+26     	; 0x708 <main+0x316>
     6ee:	80 91 4d 06 	lds	r24, 0x064D
     6f2:	88 23       	and	r24, r24
     6f4:	49 f0       	breq	.+18     	; 0x708 <main+0x316>
    _MemWords[2] = _MemWords[2]+1;
     6f6:	80 91 4f 05 	lds	r24, 0x054F
     6fa:	90 91 50 05 	lds	r25, 0x0550
     6fe:	01 96       	adiw	r24, 0x01	; 1
     700:	90 93 50 05 	sts	0x0550, r25
     704:	80 93 4f 05 	sts	0x054F, r24
  };
  // ObjIdx=6 => Step "Zone8"
  if( (_SysBits[16]) && (_MemBits[6]) ) { 
     708:	80 91 1b 03 	lds	r24, 0x031B
     70c:	88 23       	and	r24, r24
     70e:	69 f0       	breq	.+26     	; 0x72a <main+0x338>
     710:	80 91 51 06 	lds	r24, 0x0651
     714:	88 23       	and	r24, r24
     716:	49 f0       	breq	.+18     	; 0x72a <main+0x338>
    _MemWords[6] = _MemWords[6]+1;
     718:	80 91 57 05 	lds	r24, 0x0557
     71c:	90 91 58 05 	lds	r25, 0x0558
     720:	01 96       	adiw	r24, 0x01	; 1
     722:	90 93 58 05 	sts	0x0558, r25
     726:	80 93 57 05 	sts	0x0557, r24
  };
  // ObjIdx=7 => Step "Zone1"
  if( (_SysBits[16]) && (_MemBits[7]) ) { 
     72a:	80 91 1b 03 	lds	r24, 0x031B
     72e:	88 23       	and	r24, r24
     730:	69 f0       	breq	.+26     	; 0x74c <main+0x35a>
     732:	80 91 52 06 	lds	r24, 0x0652
     736:	88 23       	and	r24, r24
     738:	49 f0       	breq	.+18     	; 0x74c <main+0x35a>
    _MemWords[7] = _MemWords[7]+1;
     73a:	80 91 59 05 	lds	r24, 0x0559
     73e:	90 91 5a 05 	lds	r25, 0x055A
     742:	01 96       	adiw	r24, 0x01	; 1
     744:	90 93 5a 05 	sts	0x055A, r25
     748:	80 93 59 05 	sts	0x0559, r24
//////// If step active, execute its action code ///////////
//####################### Page 0 ########################//
////////////////////////////////////////////////////////////

  // ObjIdx=6 => Step "Zone8" (code...)
  if( _MemBits[6] ) { 
     74c:	80 91 51 06 	lds	r24, 0x0651
     750:	88 23       	and	r24, r24
     752:	09 f0       	breq	.+2      	; 0x756 <main+0x364>
     754:	de c0       	rjmp	.+444    	; 0x912 <__stack+0x13>
     756:	29 81       	ldd	r18, Y+1	; 0x01
     758:	3a 81       	ldd	r19, Y+2	; 0x02
     75a:	69 01       	movw	r12, r18
     75c:	ee 24       	eor	r14, r14
     75e:	ff 24       	eor	r15, r15
    
              
    
  };
  // ObjIdx=7 => Step "Zone1" (code...)
  if( _MemBits[7] ) { 
     760:	80 91 52 06 	lds	r24, 0x0652
     764:	88 23       	and	r24, r24
     766:	39 f0       	breq	.+14     	; 0x776 <main+0x384>
    if( (_SysWords[0]==0) ) {
     768:	80 91 8b 03 	lds	r24, 0x038B
     76c:	90 91 8c 03 	lds	r25, 0x038C
     770:	00 97       	sbiw	r24, 0x00	; 0
     772:	09 f4       	brne	.+2      	; 0x776 <main+0x384>
     774:	19 c2       	rjmp	.+1074   	; 0xba8 <__stack+0x2a9>
////////////////////////////////////////////////////////////
////////////////////////// Zone8 ///////////////////////////
//####################### Page 0 ########################//
////////////////////////////////////////////////////////////

 v = 160 - 0.03 * abs(2000.0 - position);
     776:	c7 01       	movw	r24, r14
     778:	b6 01       	movw	r22, r12
     77a:	0e 94 3b 0a 	call	0x1476	; 0x1476 <__floatunsisf>
     77e:	9b 01       	movw	r18, r22
     780:	ac 01       	movw	r20, r24
     782:	60 e0       	ldi	r22, 0x00	; 0
     784:	70 e0       	ldi	r23, 0x00	; 0
     786:	8a ef       	ldi	r24, 0xFA	; 250
     788:	94 e4       	ldi	r25, 0x44	; 68
     78a:	0e 94 80 07 	call	0xf00	; 0xf00 <__subsf3>
     78e:	7b 01       	movw	r14, r22
     790:	08 2f       	mov	r16, r24
     792:	d9 2e       	mov	r13, r25
     794:	7f 2d       	mov	r23, r15
     796:	0e 94 e9 09 	call	0x13d2	; 0x13d2 <__fixsfsi>
     79a:	77 fd       	sbrc	r23, 7
     79c:	01 c2       	rjmp	.+1026   	; 0xba0 <__stack+0x2a1>
     79e:	88 27       	eor	r24, r24
     7a0:	77 fd       	sbrc	r23, 7
     7a2:	80 95       	com	r24
     7a4:	98 2f       	mov	r25, r24
     7a6:	0e 94 89 09 	call	0x1312	; 0x1312 <__floatsisf>
     7aa:	2f e8       	ldi	r18, 0x8F	; 143
     7ac:	32 ec       	ldi	r19, 0xC2	; 194
     7ae:	45 ef       	ldi	r20, 0xF5	; 245
     7b0:	5c e3       	ldi	r21, 0x3C	; 60
     7b2:	0e 94 b1 07 	call	0xf62	; 0xf62 <__mulsf3>
     7b6:	9b 01       	movw	r18, r22
     7b8:	ac 01       	movw	r20, r24
     7ba:	60 e0       	ldi	r22, 0x00	; 0
     7bc:	70 e0       	ldi	r23, 0x00	; 0
     7be:	80 e2       	ldi	r24, 0x20	; 32
     7c0:	93 e4       	ldi	r25, 0x43	; 67
     7c2:	0e 94 80 07 	call	0xf00	; 0xf00 <__subsf3>
     7c6:	b6 2e       	mov	r11, r22
     7c8:	a7 2e       	mov	r10, r23
     7ca:	98 2e       	mov	r9, r24
     7cc:	89 2e       	mov	r8, r25
 
 w = -0.05 * (2000.0 - position);
     7ce:	6e 2d       	mov	r22, r14
     7d0:	7f 2d       	mov	r23, r15
     7d2:	80 2f       	mov	r24, r16
     7d4:	9d 2d       	mov	r25, r13
     7d6:	2d ec       	ldi	r18, 0xCD	; 205
     7d8:	3c ec       	ldi	r19, 0xCC	; 204
     7da:	4c e4       	ldi	r20, 0x4C	; 76
     7dc:	5d eb       	ldi	r21, 0xBD	; 189
     7de:	0e 94 b1 07 	call	0xf62	; 0xf62 <__mulsf3>
     7e2:	7b 01       	movw	r14, r22
     7e4:	d8 2e       	mov	r13, r24
     7e6:	c9 2e       	mov	r12, r25
 
 
 
 v1 = v + w;
     7e8:	a5 01       	movw	r20, r10
     7ea:	94 01       	movw	r18, r8
     7ec:	65 2f       	mov	r22, r21
     7ee:	74 2f       	mov	r23, r20
     7f0:	83 2f       	mov	r24, r19
     7f2:	92 2f       	mov	r25, r18
     7f4:	f6 01       	movw	r30, r12
     7f6:	2e 2d       	mov	r18, r14
     7f8:	3f 2d       	mov	r19, r15
     7fa:	4f 2f       	mov	r20, r31
     7fc:	5e 2f       	mov	r21, r30
     7fe:	0e 94 53 07 	call	0xea6	; 0xea6 <__addsf3>
     802:	0e 94 e9 09 	call	0x13d2	; 0x13d2 <__fixsfsi>
     806:	8b 01       	movw	r16, r22
 
 v2 = v - w;
     808:	a5 01       	movw	r20, r10
     80a:	94 01       	movw	r18, r8
     80c:	65 2f       	mov	r22, r21
     80e:	74 2f       	mov	r23, r20
     810:	83 2f       	mov	r24, r19
     812:	92 2f       	mov	r25, r18
     814:	f6 01       	movw	r30, r12
     816:	2e 2d       	mov	r18, r14
     818:	3f 2d       	mov	r19, r15
     81a:	4f 2f       	mov	r20, r31
     81c:	5e 2f       	mov	r21, r30
     81e:	0e 94 80 07 	call	0xf00	; 0xf00 <__subsf3>
     822:	0e 94 e9 09 	call	0x13d2	; 0x13d2 <__fixsfsi>
     826:	7b 01       	movw	r14, r22
 
 
 
 if( (v1 >255) ) {
     828:	0f 3f       	cpi	r16, 0xFF	; 255
     82a:	11 05       	cpc	r17, r1
     82c:	11 f0       	breq	.+4      	; 0x832 <main+0x440>
     82e:	0c f0       	brlt	.+2      	; 0x832 <main+0x440>
     830:	6d c0       	rjmp	.+218    	; 0x90c <__stack+0xd>
 
   v1= 255;
 
 };
 
 if( (v1<-255) ) {
     832:	ff ef       	ldi	r31, 0xFF	; 255
     834:	01 30       	cpi	r16, 0x01	; 1
     836:	1f 07       	cpc	r17, r31
     838:	14 f4       	brge	.+4      	; 0x83e <main+0x44c>
 
   v1=-255;
     83a:	01 e0       	ldi	r16, 0x01	; 1
     83c:	1f ef       	ldi	r17, 0xFF	; 255
 
 };
 
 if( (v2 >255) ) {
     83e:	2f ef       	ldi	r18, 0xFF	; 255
     840:	e2 16       	cp	r14, r18
     842:	f1 04       	cpc	r15, r1
     844:	11 f0       	breq	.+4      	; 0x84a <main+0x458>
     846:	0c f0       	brlt	.+2      	; 0x84a <main+0x458>
     848:	5d c0       	rjmp	.+186    	; 0x904 <__stack+0x5>
 
   v2= 255;
 
 };
 
 if( (v2<-255) ) {
     84a:	31 e0       	ldi	r19, 0x01	; 1
     84c:	e3 16       	cp	r14, r19
     84e:	3f ef       	ldi	r19, 0xFF	; 255
     850:	f3 06       	cpc	r15, r19
     852:	24 f4       	brge	.+8      	; 0x85c <main+0x46a>
 
   v2=-255;
     854:	91 e0       	ldi	r25, 0x01	; 1
     856:	e9 2e       	mov	r14, r25
     858:	9f ef       	ldi	r25, 0xFF	; 255
     85a:	f9 2e       	mov	r15, r25
 
 };
 
 if( _MemBits[2] ) {
     85c:	80 91 4d 06 	lds	r24, 0x064D
     860:	88 23       	and	r24, r24
     862:	09 f4       	brne	.+2      	; 0x866 <main+0x474>
     864:	48 c0       	rjmp	.+144    	; 0x8f6 <main+0x504>
 
   set_motors(v1, v2);
     866:	c8 01       	movw	r24, r16
     868:	b7 01       	movw	r22, r14
     86a:	0e 94 13 17 	call	0x2e26	; 0x2e26 <set_motors>
 
 };
 
 
 
 if( ((_SysWords[0] % 50)==0) ) {
     86e:	80 91 8b 03 	lds	r24, 0x038B
     872:	90 91 8c 03 	lds	r25, 0x038C
     876:	62 e3       	ldi	r22, 0x32	; 50
     878:	70 e0       	ldi	r23, 0x00	; 0
     87a:	0e 94 8d 21 	call	0x431a	; 0x431a <__udivmodhi4>
     87e:	00 97       	sbiw	r24, 0x00	; 0
     880:	09 f4       	brne	.+2      	; 0x884 <main+0x492>
     882:	2b c1       	rjmp	.+598    	; 0xada <__stack+0x1db>
		
		// ~~~~~~~~~~~~~~~~~~~~~~~~~~~~~~~~~~
		#include "feupautom.c"
		// ~~~~~~~~~~~~~~~~~~~~~~~~~~~~~~~~~~

		green_led(_OutBits[0]);
     884:	80 91 8b 04 	lds	r24, 0x048B
// setting it as high-impedance (val = 0) or enabling the internal pull-up (val = 1).  If the pin is an
// output, this lets you choose between driving low (val = 0) and driving high (val = 1).
// NOTE: if val is 0xFF (255), this method will toggle the PORT register pin(s).
static inline void set_digital_output_value(struct IOStruct* ioPin, unsigned char val)
{
	if (val == 0xFF)
     888:	8f 3f       	cpi	r24, 0xFF	; 255
     88a:	09 f4       	brne	.+2      	; 0x88e <main+0x49c>
     88c:	74 c1       	rjmp	.+744    	; 0xb76 <__stack+0x277>
		*(ioPin->portRegister) ^= ioPin->bitmask;
	else if (val)
     88e:	88 23       	and	r24, r24
     890:	09 f0       	breq	.+2      	; 0x894 <main+0x4a2>
     892:	12 c1       	rjmp	.+548    	; 0xab8 <__stack+0x1b9>
		*(ioPin->portRegister) |= ioPin->bitmask;
	else
		*(ioPin->portRegister) &= ~ioPin->bitmask;
     894:	5f 98       	cbi	0x0b, 7	; 11
// low-level method for setting the data direction (i.e. input or output) of an pin or set of pins
// described by an IOStruct pointer.
static inline void set_data_direction(struct IOStruct* ioPin, unsigned char val)
{
	if (val)
		*(ioPin->ddrRegister) |= ioPin->bitmask;
     896:	57 9a       	sbi	0x0a, 7	; 10
		red_led(_OutBits[1]);
     898:	80 91 8c 04 	lds	r24, 0x048C
// setting it as high-impedance (val = 0) or enabling the internal pull-up (val = 1).  If the pin is an
// output, this lets you choose between driving low (val = 0) and driving high (val = 1).
// NOTE: if val is 0xFF (255), this method will toggle the PORT register pin(s).
static inline void set_digital_output_value(struct IOStruct* ioPin, unsigned char val)
{
	if (val == 0xFF)
     89c:	8f 3f       	cpi	r24, 0xFF	; 255
     89e:	09 f4       	brne	.+2      	; 0x8a2 <main+0x4b0>
     8a0:	12 c1       	rjmp	.+548    	; 0xac6 <__stack+0x1c7>
		*(ioPin->portRegister) ^= ioPin->bitmask;
	else if (val)
     8a2:	88 23       	and	r24, r24
     8a4:	09 f0       	breq	.+2      	; 0x8a8 <main+0x4b6>
     8a6:	14 c1       	rjmp	.+552    	; 0xad0 <__stack+0x1d1>
		*(ioPin->portRegister) |= ioPin->bitmask;
	else
		*(ioPin->portRegister) &= ~ioPin->bitmask;
     8a8:	59 98       	cbi	0x0b, 1	; 11
// low-level method for setting the data direction (i.e. input or output) of an pin or set of pins
// described by an IOStruct pointer.
static inline void set_data_direction(struct IOStruct* ioPin, unsigned char val)
{
	if (val)
		*(ioPin->ddrRegister) |= ioPin->bitmask;
     8aa:	51 9a       	sbi	0x0a, 1	; 10

		// will NOT set motors => use     set_motors(0..255, 0..255);
		
		_SysWords[0]++;   // Cycle Count & Flag boot situation
     8ac:	80 91 8b 03 	lds	r24, 0x038B
     8b0:	90 91 8c 03 	lds	r25, 0x038C
     8b4:	01 96       	adiw	r24, 0x01	; 1
     8b6:	90 93 8c 03 	sts	0x038C, r25
     8ba:	80 93 8b 03 	sts	0x038B, r24
		if (_SysWords[0]==0xffff) _SysWords[0]=1;
     8be:	80 91 8b 03 	lds	r24, 0x038B
     8c2:	90 91 8c 03 	lds	r25, 0x038C
     8c6:	ff ef       	ldi	r31, 0xFF	; 255
     8c8:	8f 3f       	cpi	r24, 0xFF	; 255
     8ca:	9f 07       	cpc	r25, r31
     8cc:	61 f0       	breq	.+24     	; 0x8e6 <main+0x4f4>
	
	// ~~~~~~~~~~~~~~~~~~~~~~~~~~~~~~~~~~
	#include "c_inits.c"
	// ~~~~~~~~~~~~~~~~~~~~~~~~~~~~~~~~~~
	
    last10ms=get_ms()/10;
     8ce:	81 01       	movw	r16, r2
     8d0:	f4 cd       	rjmp	.-1048   	; 0x4ba <main+0xc8>
////////////////////////////////////////////////////////////

// ObjIdx=1 => Transition "t0"
  // Steps Above: id=0 => X1 ;
  // Steps Below: id=2 => X2 ;
  _MemBits[1] =  _MemBits[0] &&  (_InBits[1]);
     8d2:	80 e0       	ldi	r24, 0x00	; 0
     8d4:	80 93 4c 06 	sts	0x064C, r24
// ObjIdx=3 => Transition "t1"
  // Steps Above: id=2 => X2 ;
  // Steps Below: id=0 => X1 ;
  _MemBits[3] =  _MemBits[2] &&  (_InBits[0] || _InBits[2]);
     8d8:	80 91 4d 06 	lds	r24, 0x064D
     8dc:	88 23       	and	r24, r24
     8de:	09 f0       	breq	.+2      	; 0x8e2 <main+0x4f0>
     8e0:	c2 ce       	rjmp	.-636    	; 0x666 <main+0x274>
     8e2:	80 e0       	ldi	r24, 0x00	; 0
     8e4:	cb ce       	rjmp	.-618    	; 0x67c <main+0x28a>
		red_led(_OutBits[1]);

		// will NOT set motors => use     set_motors(0..255, 0..255);
		
		_SysWords[0]++;   // Cycle Count & Flag boot situation
		if (_SysWords[0]==0xffff) _SysWords[0]=1;
     8e6:	21 e0       	ldi	r18, 0x01	; 1
     8e8:	30 e0       	ldi	r19, 0x00	; 0
     8ea:	30 93 8c 03 	sts	0x038C, r19
     8ee:	20 93 8b 03 	sts	0x038B, r18
	
	// ~~~~~~~~~~~~~~~~~~~~~~~~~~~~~~~~~~
	#include "c_inits.c"
	// ~~~~~~~~~~~~~~~~~~~~~~~~~~~~~~~~~~
	
    last10ms=get_ms()/10;
     8f2:	81 01       	movw	r16, r2
     8f4:	e2 cd       	rjmp	.-1084   	; 0x4ba <main+0xc8>
 
   set_motors(v1, v2);
 
 } else {
 
   set_motors(0, 0);
     8f6:	80 e0       	ldi	r24, 0x00	; 0
     8f8:	90 e0       	ldi	r25, 0x00	; 0
     8fa:	60 e0       	ldi	r22, 0x00	; 0
     8fc:	70 e0       	ldi	r23, 0x00	; 0
     8fe:	0e 94 13 17 	call	0x2e26	; 0x2e26 <set_motors>
     902:	b5 cf       	rjmp	.-150    	; 0x86e <main+0x47c>
 
 };
 
 if( (v2 >255) ) {
 
   v2= 255;
     904:	2f ef       	ldi	r18, 0xFF	; 255
     906:	e2 2e       	mov	r14, r18
     908:	f1 2c       	mov	r15, r1
     90a:	a8 cf       	rjmp	.-176    	; 0x85c <main+0x46a>
 
 
 
 if( (v1 >255) ) {
 
   v1= 255;
     90c:	0f ef       	ldi	r16, 0xFF	; 255
     90e:	10 e0       	ldi	r17, 0x00	; 0
     910:	96 cf       	rjmp	.-212    	; 0x83e <main+0x44c>
//####################### Page 0 ########################//
////////////////////////////////////////////////////////////

  // ObjIdx=6 => Step "Zone8" (code...)
  if( _MemBits[6] ) { 
    v = 160 - 0.03 * abs(2000.0 - position);
     912:	89 81       	ldd	r24, Y+1	; 0x01
     914:	9a 81       	ldd	r25, Y+2	; 0x02
     916:	6c 01       	movw	r12, r24
     918:	ee 24       	eor	r14, r14
     91a:	ff 24       	eor	r15, r15
     91c:	c7 01       	movw	r24, r14
     91e:	b6 01       	movw	r22, r12
     920:	0e 94 3b 0a 	call	0x1476	; 0x1476 <__floatunsisf>
     924:	9b 01       	movw	r18, r22
     926:	ac 01       	movw	r20, r24
     928:	60 e0       	ldi	r22, 0x00	; 0
     92a:	70 e0       	ldi	r23, 0x00	; 0
     92c:	8a ef       	ldi	r24, 0xFA	; 250
     92e:	94 e4       	ldi	r25, 0x44	; 68
     930:	0e 94 80 07 	call	0xf00	; 0xf00 <__subsf3>
     934:	06 2f       	mov	r16, r22
     936:	b7 2e       	mov	r11, r23
     938:	a8 2e       	mov	r10, r24
     93a:	99 2e       	mov	r9, r25
     93c:	0e 94 e9 09 	call	0x13d2	; 0x13d2 <__fixsfsi>
     940:	77 fd       	sbrc	r23, 7
     942:	37 c1       	rjmp	.+622    	; 0xbb2 <__stack+0x2b3>
     944:	88 27       	eor	r24, r24
     946:	77 fd       	sbrc	r23, 7
     948:	80 95       	com	r24
     94a:	98 2f       	mov	r25, r24
     94c:	0e 94 89 09 	call	0x1312	; 0x1312 <__floatsisf>
     950:	2f e8       	ldi	r18, 0x8F	; 143
     952:	32 ec       	ldi	r19, 0xC2	; 194
     954:	45 ef       	ldi	r20, 0xF5	; 245
     956:	5c e3       	ldi	r21, 0x3C	; 60
     958:	0e 94 b1 07 	call	0xf62	; 0xf62 <__mulsf3>
     95c:	9b 01       	movw	r18, r22
     95e:	ac 01       	movw	r20, r24
     960:	60 e0       	ldi	r22, 0x00	; 0
     962:	70 e0       	ldi	r23, 0x00	; 0
     964:	80 e2       	ldi	r24, 0x20	; 32
     966:	93 e4       	ldi	r25, 0x43	; 67
     968:	0e 94 80 07 	call	0xf00	; 0xf00 <__subsf3>
     96c:	86 2e       	mov	r8, r22
     96e:	77 2e       	mov	r7, r23
     970:	68 2e       	mov	r6, r24
     972:	59 2e       	mov	r5, r25
    
    w = -0.05 * (2000.0 - position);
     974:	60 2f       	mov	r22, r16
     976:	7b 2d       	mov	r23, r11
     978:	8a 2d       	mov	r24, r10
     97a:	99 2d       	mov	r25, r9
     97c:	2d ec       	ldi	r18, 0xCD	; 205
     97e:	3c ec       	ldi	r19, 0xCC	; 204
     980:	4c e4       	ldi	r20, 0x4C	; 76
     982:	5d eb       	ldi	r21, 0xBD	; 189
     984:	0e 94 b1 07 	call	0xf62	; 0xf62 <__mulsf3>
     988:	b6 2e       	mov	r11, r22
     98a:	a7 2e       	mov	r10, r23
     98c:	98 2e       	mov	r9, r24
     98e:	49 2e       	mov	r4, r25
    
    
    
    v1 = v + w;
     990:	68 2d       	mov	r22, r8
     992:	77 2d       	mov	r23, r7
     994:	86 2d       	mov	r24, r6
     996:	95 2d       	mov	r25, r5
     998:	d5 01       	movw	r26, r10
     99a:	2b 2f       	mov	r18, r27
     99c:	3a 2f       	mov	r19, r26
     99e:	49 2d       	mov	r20, r9
     9a0:	54 2d       	mov	r21, r4
     9a2:	0e 94 53 07 	call	0xea6	; 0xea6 <__addsf3>
     9a6:	0e 94 e9 09 	call	0x13d2	; 0x13d2 <__fixsfsi>
     9aa:	8b 01       	movw	r16, r22
    
    v2 = v - w;
     9ac:	68 2d       	mov	r22, r8
     9ae:	77 2d       	mov	r23, r7
     9b0:	86 2d       	mov	r24, r6
     9b2:	95 2d       	mov	r25, r5
     9b4:	d5 01       	movw	r26, r10
     9b6:	2b 2f       	mov	r18, r27
     9b8:	3a 2f       	mov	r19, r26
     9ba:	49 2d       	mov	r20, r9
     9bc:	54 2d       	mov	r21, r4
     9be:	0e 94 80 07 	call	0xf00	; 0xf00 <__subsf3>
     9c2:	0e 94 e9 09 	call	0x13d2	; 0x13d2 <__fixsfsi>
     9c6:	5b 01       	movw	r10, r22
    
    
    
    if( (v1 >255) ) {
     9c8:	0f 3f       	cpi	r16, 0xFF	; 255
     9ca:	11 05       	cpc	r17, r1
     9cc:	11 f0       	breq	.+4      	; 0x9d2 <__stack+0xd3>
     9ce:	0c f0       	brlt	.+2      	; 0x9d2 <__stack+0xd3>
     9d0:	e4 c0       	rjmp	.+456    	; 0xb9a <__stack+0x29b>
    
      v1= 255;
    
    };
    
    if( (v1<-255) ) {
     9d2:	9f ef       	ldi	r25, 0xFF	; 255
     9d4:	01 30       	cpi	r16, 0x01	; 1
     9d6:	19 07       	cpc	r17, r25
     9d8:	14 f4       	brge	.+4      	; 0x9de <__stack+0xdf>
    
      v1=-255;
     9da:	01 e0       	ldi	r16, 0x01	; 1
     9dc:	1f ef       	ldi	r17, 0xFF	; 255
    
    };
    
    if( (v2 >255) ) {
     9de:	af ef       	ldi	r26, 0xFF	; 255
     9e0:	aa 16       	cp	r10, r26
     9e2:	b1 04       	cpc	r11, r1
     9e4:	11 f0       	breq	.+4      	; 0x9ea <__stack+0xeb>
     9e6:	0c f0       	brlt	.+2      	; 0x9ea <__stack+0xeb>
     9e8:	d4 c0       	rjmp	.+424    	; 0xb92 <__stack+0x293>
    
      v2= 255;
    
    };
    
    if( (v2<-255) ) {
     9ea:	b1 e0       	ldi	r27, 0x01	; 1
     9ec:	ab 16       	cp	r10, r27
     9ee:	bf ef       	ldi	r27, 0xFF	; 255
     9f0:	bb 06       	cpc	r11, r27
     9f2:	24 f4       	brge	.+8      	; 0x9fc <__stack+0xfd>
    
      v2=-255;
     9f4:	31 e0       	ldi	r19, 0x01	; 1
     9f6:	a3 2e       	mov	r10, r19
     9f8:	3f ef       	ldi	r19, 0xFF	; 255
     9fa:	b3 2e       	mov	r11, r19
    
    };
    
    if( _MemBits[2] ) {
     9fc:	80 91 4d 06 	lds	r24, 0x064D
     a00:	88 23       	and	r24, r24
     a02:	09 f4       	brne	.+2      	; 0xa06 <__stack+0x107>
     a04:	bf c0       	rjmp	.+382    	; 0xb84 <__stack+0x285>
    
      set_motors(v1, v2);
     a06:	c8 01       	movw	r24, r16
     a08:	b5 01       	movw	r22, r10
     a0a:	0e 94 13 17 	call	0x2e26	; 0x2e26 <set_motors>
    
    };
    
    
    
    if( ((_SysWords[0] % 50)==0) ) {
     a0e:	80 91 8b 03 	lds	r24, 0x038B
     a12:	90 91 8c 03 	lds	r25, 0x038C
     a16:	62 e3       	ldi	r22, 0x32	; 50
     a18:	70 e0       	ldi	r23, 0x00	; 0
     a1a:	0e 94 8d 21 	call	0x431a	; 0x431a <__udivmodhi4>
     a1e:	00 97       	sbiw	r24, 0x00	; 0
     a20:	09 f0       	breq	.+2      	; 0xa24 <__stack+0x125>
     a22:	9e ce       	rjmp	.-708    	; 0x760 <main+0x36e>
    
      clear();
     a24:	0e 94 68 13 	call	0x26d0	; 0x26d0 <clear>
    
      printf("%3d %3d",v1,v2);
     a28:	00 d0       	rcall	.+0      	; 0xa2a <__stack+0x12b>
     a2a:	00 d0       	rcall	.+0      	; 0xa2c <__stack+0x12d>
     a2c:	00 d0       	rcall	.+0      	; 0xa2e <__stack+0x12f>
     a2e:	ed b7       	in	r30, 0x3d	; 61
     a30:	fe b7       	in	r31, 0x3e	; 62
     a32:	31 96       	adiw	r30, 0x01	; 1
     a34:	21 e4       	ldi	r18, 0x41	; 65
     a36:	31 e0       	ldi	r19, 0x01	; 1
     a38:	ad b7       	in	r26, 0x3d	; 61
     a3a:	be b7       	in	r27, 0x3e	; 62
     a3c:	12 96       	adiw	r26, 0x02	; 2
     a3e:	3c 93       	st	X, r19
     a40:	2e 93       	st	-X, r18
     a42:	11 97       	sbiw	r26, 0x01	; 1
     a44:	13 83       	std	Z+3, r17	; 0x03
     a46:	02 83       	std	Z+2, r16	; 0x02
     a48:	b5 82       	std	Z+5, r11	; 0x05
     a4a:	a4 82       	std	Z+4, r10	; 0x04
     a4c:	0e 94 ac 23 	call	0x4758	; 0x4758 <printf>
    
      lcd_goto_xy(0,1);
     a50:	8d b7       	in	r24, 0x3d	; 61
     a52:	9e b7       	in	r25, 0x3e	; 62
     a54:	06 96       	adiw	r24, 0x06	; 6
     a56:	0f b6       	in	r0, 0x3f	; 63
     a58:	f8 94       	cli
     a5a:	9e bf       	out	0x3e, r25	; 62
     a5c:	0f be       	out	0x3f, r0	; 63
     a5e:	8d bf       	out	0x3d, r24	; 61
     a60:	80 e0       	ldi	r24, 0x00	; 0
     a62:	61 e0       	ldi	r22, 0x01	; 1
     a64:	0e 94 56 14 	call	0x28ac	; 0x28ac <lcd_goto_xy>
    
      printf("%04d %d%d", position, _MemBits[0], _MemBits[2]);
     a68:	90 91 4b 06 	lds	r25, 0x064B
     a6c:	80 91 4d 06 	lds	r24, 0x064D
     a70:	ad b7       	in	r26, 0x3d	; 61
     a72:	be b7       	in	r27, 0x3e	; 62
     a74:	18 97       	sbiw	r26, 0x08	; 8
     a76:	0f b6       	in	r0, 0x3f	; 63
     a78:	f8 94       	cli
     a7a:	be bf       	out	0x3e, r27	; 62
     a7c:	0f be       	out	0x3f, r0	; 63
     a7e:	ad bf       	out	0x3d, r26	; 61
     a80:	ed b7       	in	r30, 0x3d	; 61
     a82:	fe b7       	in	r31, 0x3e	; 62
     a84:	31 96       	adiw	r30, 0x01	; 1
     a86:	29 e4       	ldi	r18, 0x49	; 73
     a88:	31 e0       	ldi	r19, 0x01	; 1
     a8a:	12 96       	adiw	r26, 0x02	; 2
     a8c:	3c 93       	st	X, r19
     a8e:	2e 93       	st	-X, r18
     a90:	11 97       	sbiw	r26, 0x01	; 1
     a92:	a9 81       	ldd	r26, Y+1	; 0x01
     a94:	ba 81       	ldd	r27, Y+2	; 0x02
     a96:	b3 83       	std	Z+3, r27	; 0x03
     a98:	a2 83       	std	Z+2, r26	; 0x02
     a9a:	94 83       	std	Z+4, r25	; 0x04
     a9c:	15 82       	std	Z+5, r1	; 0x05
     a9e:	86 83       	std	Z+6, r24	; 0x06
     aa0:	17 82       	std	Z+7, r1	; 0x07
     aa2:	0e 94 ac 23 	call	0x4758	; 0x4758 <printf>
     aa6:	ed b7       	in	r30, 0x3d	; 61
     aa8:	fe b7       	in	r31, 0x3e	; 62
     aaa:	38 96       	adiw	r30, 0x08	; 8
     aac:	0f b6       	in	r0, 0x3f	; 63
     aae:	f8 94       	cli
     ab0:	fe bf       	out	0x3e, r31	; 62
     ab2:	0f be       	out	0x3f, r0	; 63
     ab4:	ed bf       	out	0x3d, r30	; 61
     ab6:	54 ce       	rjmp	.-856    	; 0x760 <main+0x36e>
static inline void set_digital_output_value(struct IOStruct* ioPin, unsigned char val)
{
	if (val == 0xFF)
		*(ioPin->portRegister) ^= ioPin->bitmask;
	else if (val)
		*(ioPin->portRegister) |= ioPin->bitmask;
     ab8:	5f 9a       	sbi	0x0b, 7	; 11
// low-level method for setting the data direction (i.e. input or output) of an pin or set of pins
// described by an IOStruct pointer.
static inline void set_data_direction(struct IOStruct* ioPin, unsigned char val)
{
	if (val)
		*(ioPin->ddrRegister) |= ioPin->bitmask;
     aba:	57 9a       	sbi	0x0a, 7	; 10
		// ~~~~~~~~~~~~~~~~~~~~~~~~~~~~~~~~~~
		#include "feupautom.c"
		// ~~~~~~~~~~~~~~~~~~~~~~~~~~~~~~~~~~

		green_led(_OutBits[0]);
		red_led(_OutBits[1]);
     abc:	80 91 8c 04 	lds	r24, 0x048C
// setting it as high-impedance (val = 0) or enabling the internal pull-up (val = 1).  If the pin is an
// output, this lets you choose between driving low (val = 0) and driving high (val = 1).
// NOTE: if val is 0xFF (255), this method will toggle the PORT register pin(s).
static inline void set_digital_output_value(struct IOStruct* ioPin, unsigned char val)
{
	if (val == 0xFF)
     ac0:	8f 3f       	cpi	r24, 0xFF	; 255
     ac2:	09 f0       	breq	.+2      	; 0xac6 <__stack+0x1c7>
     ac4:	ee ce       	rjmp	.-548    	; 0x8a2 <main+0x4b0>
		*(ioPin->portRegister) ^= ioPin->bitmask;
     ac6:	8b b1       	in	r24, 0x0b	; 11
     ac8:	92 e0       	ldi	r25, 0x02	; 2
     aca:	89 27       	eor	r24, r25
     acc:	8b b9       	out	0x0b, r24	; 11
     ace:	ed ce       	rjmp	.-550    	; 0x8aa <main+0x4b8>
	else if (val)
		*(ioPin->portRegister) |= ioPin->bitmask;
     ad0:	59 9a       	sbi	0x0b, 1	; 11
     ad2:	eb ce       	rjmp	.-554    	; 0x8aa <main+0x4b8>
////////////////////////// Zone1 ///////////////////////////
//####################### Page 0 ########################//
////////////////////////////////////////////////////////////

 if( (_SysWords[0]==0) ) {
   calibrate();
     ad4:	0e 94 9c 01 	call	0x338	; 0x338 <calibrate>
     ad8:	a5 cd       	rjmp	.-1206   	; 0x624 <main+0x232>
 
 
 
 if( ((_SysWords[0] % 50)==0) ) {
 
   clear();
     ada:	0e 94 68 13 	call	0x26d0	; 0x26d0 <clear>
 
   printf("%3d %3d",v1,v2);
     ade:	00 d0       	rcall	.+0      	; 0xae0 <__stack+0x1e1>
     ae0:	00 d0       	rcall	.+0      	; 0xae2 <__stack+0x1e3>
     ae2:	00 d0       	rcall	.+0      	; 0xae4 <__stack+0x1e5>
     ae4:	ed b7       	in	r30, 0x3d	; 61
     ae6:	fe b7       	in	r31, 0x3e	; 62
     ae8:	31 96       	adiw	r30, 0x01	; 1
     aea:	21 e4       	ldi	r18, 0x41	; 65
     aec:	31 e0       	ldi	r19, 0x01	; 1
     aee:	ad b7       	in	r26, 0x3d	; 61
     af0:	be b7       	in	r27, 0x3e	; 62
     af2:	12 96       	adiw	r26, 0x02	; 2
     af4:	3c 93       	st	X, r19
     af6:	2e 93       	st	-X, r18
     af8:	11 97       	sbiw	r26, 0x01	; 1
     afa:	13 83       	std	Z+3, r17	; 0x03
     afc:	02 83       	std	Z+2, r16	; 0x02
     afe:	f5 82       	std	Z+5, r15	; 0x05
     b00:	e4 82       	std	Z+4, r14	; 0x04
     b02:	0e 94 ac 23 	call	0x4758	; 0x4758 <printf>
 
   lcd_goto_xy(0,1);
     b06:	8d b7       	in	r24, 0x3d	; 61
     b08:	9e b7       	in	r25, 0x3e	; 62
     b0a:	06 96       	adiw	r24, 0x06	; 6
     b0c:	0f b6       	in	r0, 0x3f	; 63
     b0e:	f8 94       	cli
     b10:	9e bf       	out	0x3e, r25	; 62
     b12:	0f be       	out	0x3f, r0	; 63
     b14:	8d bf       	out	0x3d, r24	; 61
     b16:	80 e0       	ldi	r24, 0x00	; 0
     b18:	61 e0       	ldi	r22, 0x01	; 1
     b1a:	0e 94 56 14 	call	0x28ac	; 0x28ac <lcd_goto_xy>
 
   printf("%04d %d%d", position, _MemBits[0], _MemBits[2]);
     b1e:	90 91 4b 06 	lds	r25, 0x064B
     b22:	80 91 4d 06 	lds	r24, 0x064D
     b26:	ad b7       	in	r26, 0x3d	; 61
     b28:	be b7       	in	r27, 0x3e	; 62
     b2a:	18 97       	sbiw	r26, 0x08	; 8
     b2c:	0f b6       	in	r0, 0x3f	; 63
     b2e:	f8 94       	cli
     b30:	be bf       	out	0x3e, r27	; 62
     b32:	0f be       	out	0x3f, r0	; 63
     b34:	ad bf       	out	0x3d, r26	; 61
     b36:	ed b7       	in	r30, 0x3d	; 61
     b38:	fe b7       	in	r31, 0x3e	; 62
     b3a:	31 96       	adiw	r30, 0x01	; 1
     b3c:	29 e4       	ldi	r18, 0x49	; 73
     b3e:	31 e0       	ldi	r19, 0x01	; 1
     b40:	12 96       	adiw	r26, 0x02	; 2
     b42:	3c 93       	st	X, r19
     b44:	2e 93       	st	-X, r18
     b46:	11 97       	sbiw	r26, 0x01	; 1
     b48:	a9 81       	ldd	r26, Y+1	; 0x01
     b4a:	ba 81       	ldd	r27, Y+2	; 0x02
     b4c:	b3 83       	std	Z+3, r27	; 0x03
     b4e:	a2 83       	std	Z+2, r26	; 0x02
     b50:	94 83       	std	Z+4, r25	; 0x04
     b52:	15 82       	std	Z+5, r1	; 0x05
     b54:	86 83       	std	Z+6, r24	; 0x06
     b56:	17 82       	std	Z+7, r1	; 0x07
     b58:	0e 94 ac 23 	call	0x4758	; 0x4758 <printf>
     b5c:	ed b7       	in	r30, 0x3d	; 61
     b5e:	fe b7       	in	r31, 0x3e	; 62
     b60:	38 96       	adiw	r30, 0x08	; 8
     b62:	0f b6       	in	r0, 0x3f	; 63
     b64:	f8 94       	cli
     b66:	fe bf       	out	0x3e, r31	; 62
     b68:	0f be       	out	0x3f, r0	; 63
     b6a:	ed bf       	out	0x3d, r30	; 61
		
		// ~~~~~~~~~~~~~~~~~~~~~~~~~~~~~~~~~~
		#include "feupautom.c"
		// ~~~~~~~~~~~~~~~~~~~~~~~~~~~~~~~~~~

		green_led(_OutBits[0]);
     b6c:	80 91 8b 04 	lds	r24, 0x048B
// setting it as high-impedance (val = 0) or enabling the internal pull-up (val = 1).  If the pin is an
// output, this lets you choose between driving low (val = 0) and driving high (val = 1).
// NOTE: if val is 0xFF (255), this method will toggle the PORT register pin(s).
static inline void set_digital_output_value(struct IOStruct* ioPin, unsigned char val)
{
	if (val == 0xFF)
     b70:	8f 3f       	cpi	r24, 0xFF	; 255
     b72:	09 f0       	breq	.+2      	; 0xb76 <__stack+0x277>
     b74:	8c ce       	rjmp	.-744    	; 0x88e <main+0x49c>
		*(ioPin->portRegister) ^= ioPin->bitmask;
     b76:	8b b1       	in	r24, 0x0b	; 11
     b78:	80 58       	subi	r24, 0x80	; 128
     b7a:	8b b9       	out	0x0b, r24	; 11
     b7c:	8c ce       	rjmp	.-744    	; 0x896 <main+0x4a4>

		now10ms=get_ms()/10.0;
		if (now10ms!=last10ms) {
		  last10ms=now10ms;
		  _SysBits[16]=1;
		} else _SysBits[16]=0;
     b7e:	10 92 1b 03 	sts	0x031B, r1
     b82:	d1 cc       	rjmp	.-1630   	; 0x526 <main+0x134>
    
      set_motors(v1, v2);
    
    } else {
    
      set_motors(0, 0);
     b84:	80 e0       	ldi	r24, 0x00	; 0
     b86:	90 e0       	ldi	r25, 0x00	; 0
     b88:	60 e0       	ldi	r22, 0x00	; 0
     b8a:	70 e0       	ldi	r23, 0x00	; 0
     b8c:	0e 94 13 17 	call	0x2e26	; 0x2e26 <set_motors>
     b90:	3e cf       	rjmp	.-388    	; 0xa0e <__stack+0x10f>
    
    };
    
    if( (v2 >255) ) {
    
      v2= 255;
     b92:	4f ef       	ldi	r20, 0xFF	; 255
     b94:	a4 2e       	mov	r10, r20
     b96:	b1 2c       	mov	r11, r1
     b98:	31 cf       	rjmp	.-414    	; 0x9fc <__stack+0xfd>
    
    
    
    if( (v1 >255) ) {
    
      v1= 255;
     b9a:	0f ef       	ldi	r16, 0xFF	; 255
     b9c:	10 e0       	ldi	r17, 0x00	; 0
     b9e:	1f cf       	rjmp	.-450    	; 0x9de <__stack+0xdf>
////////////////////////////////////////////////////////////
////////////////////////// Zone8 ///////////////////////////
//####################### Page 0 ########################//
////////////////////////////////////////////////////////////

 v = 160 - 0.03 * abs(2000.0 - position);
     ba0:	70 95       	com	r23
     ba2:	61 95       	neg	r22
     ba4:	7f 4f       	sbci	r23, 0xFF	; 255
     ba6:	fb cd       	rjmp	.-1034   	; 0x79e <main+0x3ac>
    
  };
  // ObjIdx=7 => Step "Zone1" (code...)
  if( _MemBits[7] ) { 
    if( (_SysWords[0]==0) ) {
      calibrate();
     ba8:	0e 94 9c 01 	call	0x338	; 0x338 <calibrate>
     bac:	e4 cd       	rjmp	.-1080   	; 0x776 <main+0x384>
  // Steps Below: id=2 => X2 ;
  _MemBits[1] =  _MemBits[0] &&  (_InBits[1]);
// ObjIdx=3 => Transition "t1"
  // Steps Above: id=2 => X2 ;
  // Steps Below: id=0 => X1 ;
  _MemBits[3] =  _MemBits[2] &&  (_InBits[0] || _InBits[2]);
     bae:	81 e0       	ldi	r24, 0x01	; 1
     bb0:	65 cd       	rjmp	.-1334   	; 0x67c <main+0x28a>
//####################### Page 0 ########################//
////////////////////////////////////////////////////////////

  // ObjIdx=6 => Step "Zone8" (code...)
  if( _MemBits[6] ) { 
    v = 160 - 0.03 * abs(2000.0 - position);
     bb2:	70 95       	com	r23
     bb4:	61 95       	neg	r22
     bb6:	7f 4f       	sbci	r23, 0xFF	; 255
     bb8:	c5 ce       	rjmp	.-630    	; 0x944 <__stack+0x45>

00000bba <__fixunssfsi>:
     bba:	ef 92       	push	r14
     bbc:	ff 92       	push	r15
     bbe:	0f 93       	push	r16
     bc0:	1f 93       	push	r17
     bc2:	7b 01       	movw	r14, r22
     bc4:	8c 01       	movw	r16, r24
     bc6:	20 e0       	ldi	r18, 0x00	; 0
     bc8:	30 e0       	ldi	r19, 0x00	; 0
     bca:	40 e0       	ldi	r20, 0x00	; 0
     bcc:	5f e4       	ldi	r21, 0x4F	; 79
     bce:	0e 94 59 09 	call	0x12b2	; 0x12b2 <__gesf2>
     bd2:	87 fd       	sbrc	r24, 7
     bd4:	11 c0       	rjmp	.+34     	; 0xbf8 <__fixunssfsi+0x3e>
     bd6:	c8 01       	movw	r24, r16
     bd8:	b7 01       	movw	r22, r14
     bda:	20 e0       	ldi	r18, 0x00	; 0
     bdc:	30 e0       	ldi	r19, 0x00	; 0
     bde:	40 e0       	ldi	r20, 0x00	; 0
     be0:	5f e4       	ldi	r21, 0x4F	; 79
     be2:	0e 94 80 07 	call	0xf00	; 0xf00 <__subsf3>
     be6:	0e 94 e9 09 	call	0x13d2	; 0x13d2 <__fixsfsi>
     bea:	9b 01       	movw	r18, r22
     bec:	ac 01       	movw	r20, r24
     bee:	20 50       	subi	r18, 0x00	; 0
     bf0:	30 40       	sbci	r19, 0x00	; 0
     bf2:	40 40       	sbci	r20, 0x00	; 0
     bf4:	50 48       	sbci	r21, 0x80	; 128
     bf6:	06 c0       	rjmp	.+12     	; 0xc04 <__fixunssfsi+0x4a>
     bf8:	c8 01       	movw	r24, r16
     bfa:	b7 01       	movw	r22, r14
     bfc:	0e 94 e9 09 	call	0x13d2	; 0x13d2 <__fixsfsi>
     c00:	9b 01       	movw	r18, r22
     c02:	ac 01       	movw	r20, r24
     c04:	b9 01       	movw	r22, r18
     c06:	ca 01       	movw	r24, r20
     c08:	1f 91       	pop	r17
     c0a:	0f 91       	pop	r16
     c0c:	ff 90       	pop	r15
     c0e:	ef 90       	pop	r14
     c10:	08 95       	ret

00000c12 <_fpadd_parts>:
     c12:	a0 e0       	ldi	r26, 0x00	; 0
     c14:	b0 e0       	ldi	r27, 0x00	; 0
     c16:	ef e0       	ldi	r30, 0x0F	; 15
     c18:	f6 e0       	ldi	r31, 0x06	; 6
     c1a:	0c 94 f5 21 	jmp	0x43ea	; 0x43ea <__prologue_saves__+0x8>
     c1e:	fc 01       	movw	r30, r24
     c20:	ea 01       	movw	r28, r20
     c22:	80 81       	ld	r24, Z
     c24:	82 30       	cpi	r24, 0x02	; 2
     c26:	08 f4       	brcc	.+2      	; 0xc2a <_fpadd_parts+0x18>
     c28:	38 c1       	rjmp	.+624    	; 0xe9a <_fpadd_parts+0x288>
     c2a:	db 01       	movw	r26, r22
     c2c:	9c 91       	ld	r25, X
     c2e:	92 30       	cpi	r25, 0x02	; 2
     c30:	08 f4       	brcc	.+2      	; 0xc34 <_fpadd_parts+0x22>
     c32:	30 c1       	rjmp	.+608    	; 0xe94 <_fpadd_parts+0x282>
     c34:	84 30       	cpi	r24, 0x04	; 4
     c36:	59 f4       	brne	.+22     	; 0xc4e <_fpadd_parts+0x3c>
     c38:	94 30       	cpi	r25, 0x04	; 4
     c3a:	09 f0       	breq	.+2      	; 0xc3e <_fpadd_parts+0x2c>
     c3c:	2e c1       	rjmp	.+604    	; 0xe9a <_fpadd_parts+0x288>
     c3e:	91 81       	ldd	r25, Z+1	; 0x01
     c40:	11 96       	adiw	r26, 0x01	; 1
     c42:	8c 91       	ld	r24, X
     c44:	11 97       	sbiw	r26, 0x01	; 1
     c46:	98 17       	cp	r25, r24
     c48:	09 f0       	breq	.+2      	; 0xc4c <_fpadd_parts+0x3a>
     c4a:	21 c1       	rjmp	.+578    	; 0xe8e <_fpadd_parts+0x27c>
     c4c:	26 c1       	rjmp	.+588    	; 0xe9a <_fpadd_parts+0x288>
     c4e:	94 30       	cpi	r25, 0x04	; 4
     c50:	09 f4       	brne	.+2      	; 0xc54 <_fpadd_parts+0x42>
     c52:	20 c1       	rjmp	.+576    	; 0xe94 <_fpadd_parts+0x282>
     c54:	92 30       	cpi	r25, 0x02	; 2
     c56:	b1 f4       	brne	.+44     	; 0xc84 <_fpadd_parts+0x72>
     c58:	82 30       	cpi	r24, 0x02	; 2
     c5a:	09 f0       	breq	.+2      	; 0xc5e <_fpadd_parts+0x4c>
     c5c:	1e c1       	rjmp	.+572    	; 0xe9a <_fpadd_parts+0x288>
     c5e:	ca 01       	movw	r24, r20
     c60:	af 01       	movw	r20, r30
     c62:	28 e0       	ldi	r18, 0x08	; 8
     c64:	da 01       	movw	r26, r20
     c66:	0d 90       	ld	r0, X+
     c68:	ad 01       	movw	r20, r26
     c6a:	dc 01       	movw	r26, r24
     c6c:	0d 92       	st	X+, r0
     c6e:	cd 01       	movw	r24, r26
     c70:	21 50       	subi	r18, 0x01	; 1
     c72:	c1 f7       	brne	.-16     	; 0xc64 <_fpadd_parts+0x52>
     c74:	db 01       	movw	r26, r22
     c76:	11 96       	adiw	r26, 0x01	; 1
     c78:	8c 91       	ld	r24, X
     c7a:	11 97       	sbiw	r26, 0x01	; 1
     c7c:	91 81       	ldd	r25, Z+1	; 0x01
     c7e:	89 23       	and	r24, r25
     c80:	89 83       	std	Y+1, r24	; 0x01
     c82:	0a c1       	rjmp	.+532    	; 0xe98 <_fpadd_parts+0x286>
     c84:	82 30       	cpi	r24, 0x02	; 2
     c86:	09 f4       	brne	.+2      	; 0xc8a <_fpadd_parts+0x78>
     c88:	05 c1       	rjmp	.+522    	; 0xe94 <_fpadd_parts+0x282>
     c8a:	c2 80       	ldd	r12, Z+2	; 0x02
     c8c:	d3 80       	ldd	r13, Z+3	; 0x03
     c8e:	db 01       	movw	r26, r22
     c90:	12 96       	adiw	r26, 0x02	; 2
     c92:	6d 90       	ld	r6, X+
     c94:	7c 90       	ld	r7, X
     c96:	13 97       	sbiw	r26, 0x03	; 3
     c98:	24 81       	ldd	r18, Z+4	; 0x04
     c9a:	35 81       	ldd	r19, Z+5	; 0x05
     c9c:	46 81       	ldd	r20, Z+6	; 0x06
     c9e:	57 81       	ldd	r21, Z+7	; 0x07
     ca0:	14 96       	adiw	r26, 0x04	; 4
     ca2:	ed 90       	ld	r14, X+
     ca4:	fd 90       	ld	r15, X+
     ca6:	0d 91       	ld	r16, X+
     ca8:	1c 91       	ld	r17, X
     caa:	17 97       	sbiw	r26, 0x07	; 7
     cac:	c6 01       	movw	r24, r12
     cae:	86 19       	sub	r24, r6
     cb0:	97 09       	sbc	r25, r7
     cb2:	5c 01       	movw	r10, r24
     cb4:	97 ff       	sbrs	r25, 7
     cb6:	04 c0       	rjmp	.+8      	; 0xcc0 <_fpadd_parts+0xae>
     cb8:	aa 24       	eor	r10, r10
     cba:	bb 24       	eor	r11, r11
     cbc:	a8 1a       	sub	r10, r24
     cbe:	b9 0a       	sbc	r11, r25
     cc0:	b0 e2       	ldi	r27, 0x20	; 32
     cc2:	ab 16       	cp	r10, r27
     cc4:	b1 04       	cpc	r11, r1
     cc6:	0c f0       	brlt	.+2      	; 0xcca <_fpadd_parts+0xb8>
     cc8:	61 c0       	rjmp	.+194    	; 0xd8c <_fpadd_parts+0x17a>
     cca:	18 16       	cp	r1, r24
     ccc:	19 06       	cpc	r1, r25
     cce:	6c f5       	brge	.+90     	; 0xd2a <_fpadd_parts+0x118>
     cd0:	37 01       	movw	r6, r14
     cd2:	48 01       	movw	r8, r16
     cd4:	0a 2c       	mov	r0, r10
     cd6:	04 c0       	rjmp	.+8      	; 0xce0 <_fpadd_parts+0xce>
     cd8:	96 94       	lsr	r9
     cda:	87 94       	ror	r8
     cdc:	77 94       	ror	r7
     cde:	67 94       	ror	r6
     ce0:	0a 94       	dec	r0
     ce2:	d2 f7       	brpl	.-12     	; 0xcd8 <_fpadd_parts+0xc6>
     ce4:	81 e0       	ldi	r24, 0x01	; 1
     ce6:	90 e0       	ldi	r25, 0x00	; 0
     ce8:	a0 e0       	ldi	r26, 0x00	; 0
     cea:	b0 e0       	ldi	r27, 0x00	; 0
     cec:	0a 2c       	mov	r0, r10
     cee:	04 c0       	rjmp	.+8      	; 0xcf8 <_fpadd_parts+0xe6>
     cf0:	88 0f       	add	r24, r24
     cf2:	99 1f       	adc	r25, r25
     cf4:	aa 1f       	adc	r26, r26
     cf6:	bb 1f       	adc	r27, r27
     cf8:	0a 94       	dec	r0
     cfa:	d2 f7       	brpl	.-12     	; 0xcf0 <_fpadd_parts+0xde>
     cfc:	01 97       	sbiw	r24, 0x01	; 1
     cfe:	a1 09       	sbc	r26, r1
     d00:	b1 09       	sbc	r27, r1
     d02:	8e 21       	and	r24, r14
     d04:	9f 21       	and	r25, r15
     d06:	a0 23       	and	r26, r16
     d08:	b1 23       	and	r27, r17
     d0a:	ee 24       	eor	r14, r14
     d0c:	ff 24       	eor	r15, r15
     d0e:	87 01       	movw	r16, r14
     d10:	e3 94       	inc	r14
     d12:	00 97       	sbiw	r24, 0x00	; 0
     d14:	a1 05       	cpc	r26, r1
     d16:	b1 05       	cpc	r27, r1
     d18:	19 f4       	brne	.+6      	; 0xd20 <_fpadd_parts+0x10e>
     d1a:	ee 24       	eor	r14, r14
     d1c:	ff 24       	eor	r15, r15
     d1e:	87 01       	movw	r16, r14
     d20:	e6 28       	or	r14, r6
     d22:	f7 28       	or	r15, r7
     d24:	08 29       	or	r16, r8
     d26:	19 29       	or	r17, r9
     d28:	3c c0       	rjmp	.+120    	; 0xda2 <_fpadd_parts+0x190>
     d2a:	00 97       	sbiw	r24, 0x00	; 0
     d2c:	d1 f1       	breq	.+116    	; 0xda2 <_fpadd_parts+0x190>
     d2e:	ca 0c       	add	r12, r10
     d30:	db 1c       	adc	r13, r11
     d32:	39 01       	movw	r6, r18
     d34:	4a 01       	movw	r8, r20
     d36:	0a 2c       	mov	r0, r10
     d38:	04 c0       	rjmp	.+8      	; 0xd42 <_fpadd_parts+0x130>
     d3a:	96 94       	lsr	r9
     d3c:	87 94       	ror	r8
     d3e:	77 94       	ror	r7
     d40:	67 94       	ror	r6
     d42:	0a 94       	dec	r0
     d44:	d2 f7       	brpl	.-12     	; 0xd3a <_fpadd_parts+0x128>
     d46:	81 e0       	ldi	r24, 0x01	; 1
     d48:	90 e0       	ldi	r25, 0x00	; 0
     d4a:	a0 e0       	ldi	r26, 0x00	; 0
     d4c:	b0 e0       	ldi	r27, 0x00	; 0
     d4e:	0a 2c       	mov	r0, r10
     d50:	04 c0       	rjmp	.+8      	; 0xd5a <_fpadd_parts+0x148>
     d52:	88 0f       	add	r24, r24
     d54:	99 1f       	adc	r25, r25
     d56:	aa 1f       	adc	r26, r26
     d58:	bb 1f       	adc	r27, r27
     d5a:	0a 94       	dec	r0
     d5c:	d2 f7       	brpl	.-12     	; 0xd52 <_fpadd_parts+0x140>
     d5e:	01 97       	sbiw	r24, 0x01	; 1
     d60:	a1 09       	sbc	r26, r1
     d62:	b1 09       	sbc	r27, r1
     d64:	82 23       	and	r24, r18
     d66:	93 23       	and	r25, r19
     d68:	a4 23       	and	r26, r20
     d6a:	b5 23       	and	r27, r21
     d6c:	21 e0       	ldi	r18, 0x01	; 1
     d6e:	30 e0       	ldi	r19, 0x00	; 0
     d70:	40 e0       	ldi	r20, 0x00	; 0
     d72:	50 e0       	ldi	r21, 0x00	; 0
     d74:	00 97       	sbiw	r24, 0x00	; 0
     d76:	a1 05       	cpc	r26, r1
     d78:	b1 05       	cpc	r27, r1
     d7a:	19 f4       	brne	.+6      	; 0xd82 <_fpadd_parts+0x170>
     d7c:	20 e0       	ldi	r18, 0x00	; 0
     d7e:	30 e0       	ldi	r19, 0x00	; 0
     d80:	a9 01       	movw	r20, r18
     d82:	26 29       	or	r18, r6
     d84:	37 29       	or	r19, r7
     d86:	48 29       	or	r20, r8
     d88:	59 29       	or	r21, r9
     d8a:	0b c0       	rjmp	.+22     	; 0xda2 <_fpadd_parts+0x190>
     d8c:	6c 14       	cp	r6, r12
     d8e:	7d 04       	cpc	r7, r13
     d90:	24 f4       	brge	.+8      	; 0xd9a <_fpadd_parts+0x188>
     d92:	ee 24       	eor	r14, r14
     d94:	ff 24       	eor	r15, r15
     d96:	87 01       	movw	r16, r14
     d98:	04 c0       	rjmp	.+8      	; 0xda2 <_fpadd_parts+0x190>
     d9a:	63 01       	movw	r12, r6
     d9c:	20 e0       	ldi	r18, 0x00	; 0
     d9e:	30 e0       	ldi	r19, 0x00	; 0
     da0:	a9 01       	movw	r20, r18
     da2:	81 81       	ldd	r24, Z+1	; 0x01
     da4:	fb 01       	movw	r30, r22
     da6:	91 81       	ldd	r25, Z+1	; 0x01
     da8:	89 17       	cp	r24, r25
     daa:	09 f4       	brne	.+2      	; 0xdae <_fpadd_parts+0x19c>
     dac:	45 c0       	rjmp	.+138    	; 0xe38 <_fpadd_parts+0x226>
     dae:	88 23       	and	r24, r24
     db0:	49 f0       	breq	.+18     	; 0xdc4 <_fpadd_parts+0x1b2>
     db2:	d8 01       	movw	r26, r16
     db4:	c7 01       	movw	r24, r14
     db6:	82 1b       	sub	r24, r18
     db8:	93 0b       	sbc	r25, r19
     dba:	a4 0b       	sbc	r26, r20
     dbc:	b5 0b       	sbc	r27, r21
     dbe:	9c 01       	movw	r18, r24
     dc0:	ad 01       	movw	r20, r26
     dc2:	04 c0       	rjmp	.+8      	; 0xdcc <_fpadd_parts+0x1ba>
     dc4:	2e 19       	sub	r18, r14
     dc6:	3f 09       	sbc	r19, r15
     dc8:	40 0b       	sbc	r20, r16
     dca:	51 0b       	sbc	r21, r17
     dcc:	57 fd       	sbrc	r21, 7
     dce:	04 c0       	rjmp	.+8      	; 0xdd8 <_fpadd_parts+0x1c6>
     dd0:	19 82       	std	Y+1, r1	; 0x01
     dd2:	db 82       	std	Y+3, r13	; 0x03
     dd4:	ca 82       	std	Y+2, r12	; 0x02
     dd6:	0b c0       	rjmp	.+22     	; 0xdee <_fpadd_parts+0x1dc>
     dd8:	81 e0       	ldi	r24, 0x01	; 1
     dda:	89 83       	std	Y+1, r24	; 0x01
     ddc:	db 82       	std	Y+3, r13	; 0x03
     dde:	ca 82       	std	Y+2, r12	; 0x02
     de0:	50 95       	com	r21
     de2:	40 95       	com	r20
     de4:	30 95       	com	r19
     de6:	21 95       	neg	r18
     de8:	3f 4f       	sbci	r19, 0xFF	; 255
     dea:	4f 4f       	sbci	r20, 0xFF	; 255
     dec:	5f 4f       	sbci	r21, 0xFF	; 255
     dee:	2c 83       	std	Y+4, r18	; 0x04
     df0:	3d 83       	std	Y+5, r19	; 0x05
     df2:	4e 83       	std	Y+6, r20	; 0x06
     df4:	5f 83       	std	Y+7, r21	; 0x07
     df6:	0d c0       	rjmp	.+26     	; 0xe12 <_fpadd_parts+0x200>
     df8:	88 0f       	add	r24, r24
     dfa:	99 1f       	adc	r25, r25
     dfc:	aa 1f       	adc	r26, r26
     dfe:	bb 1f       	adc	r27, r27
     e00:	8c 83       	std	Y+4, r24	; 0x04
     e02:	9d 83       	std	Y+5, r25	; 0x05
     e04:	ae 83       	std	Y+6, r26	; 0x06
     e06:	bf 83       	std	Y+7, r27	; 0x07
     e08:	8a 81       	ldd	r24, Y+2	; 0x02
     e0a:	9b 81       	ldd	r25, Y+3	; 0x03
     e0c:	01 97       	sbiw	r24, 0x01	; 1
     e0e:	9b 83       	std	Y+3, r25	; 0x03
     e10:	8a 83       	std	Y+2, r24	; 0x02
     e12:	8c 81       	ldd	r24, Y+4	; 0x04
     e14:	9d 81       	ldd	r25, Y+5	; 0x05
     e16:	ae 81       	ldd	r26, Y+6	; 0x06
     e18:	bf 81       	ldd	r27, Y+7	; 0x07
     e1a:	9c 01       	movw	r18, r24
     e1c:	ad 01       	movw	r20, r26
     e1e:	21 50       	subi	r18, 0x01	; 1
     e20:	30 40       	sbci	r19, 0x00	; 0
     e22:	40 40       	sbci	r20, 0x00	; 0
     e24:	50 40       	sbci	r21, 0x00	; 0
     e26:	2f 3f       	cpi	r18, 0xFF	; 255
     e28:	ef ef       	ldi	r30, 0xFF	; 255
     e2a:	3e 07       	cpc	r19, r30
     e2c:	ef ef       	ldi	r30, 0xFF	; 255
     e2e:	4e 07       	cpc	r20, r30
     e30:	ef e3       	ldi	r30, 0x3F	; 63
     e32:	5e 07       	cpc	r21, r30
     e34:	08 f3       	brcs	.-62     	; 0xdf8 <_fpadd_parts+0x1e6>
     e36:	0b c0       	rjmp	.+22     	; 0xe4e <_fpadd_parts+0x23c>
     e38:	89 83       	std	Y+1, r24	; 0x01
     e3a:	db 82       	std	Y+3, r13	; 0x03
     e3c:	ca 82       	std	Y+2, r12	; 0x02
     e3e:	2e 0d       	add	r18, r14
     e40:	3f 1d       	adc	r19, r15
     e42:	40 1f       	adc	r20, r16
     e44:	51 1f       	adc	r21, r17
     e46:	2c 83       	std	Y+4, r18	; 0x04
     e48:	3d 83       	std	Y+5, r19	; 0x05
     e4a:	4e 83       	std	Y+6, r20	; 0x06
     e4c:	5f 83       	std	Y+7, r21	; 0x07
     e4e:	83 e0       	ldi	r24, 0x03	; 3
     e50:	88 83       	st	Y, r24
     e52:	2c 81       	ldd	r18, Y+4	; 0x04
     e54:	3d 81       	ldd	r19, Y+5	; 0x05
     e56:	4e 81       	ldd	r20, Y+6	; 0x06
     e58:	5f 81       	ldd	r21, Y+7	; 0x07
     e5a:	57 ff       	sbrs	r21, 7
     e5c:	1d c0       	rjmp	.+58     	; 0xe98 <_fpadd_parts+0x286>
     e5e:	da 01       	movw	r26, r20
     e60:	c9 01       	movw	r24, r18
     e62:	81 70       	andi	r24, 0x01	; 1
     e64:	90 70       	andi	r25, 0x00	; 0
     e66:	a0 70       	andi	r26, 0x00	; 0
     e68:	b0 70       	andi	r27, 0x00	; 0
     e6a:	56 95       	lsr	r21
     e6c:	47 95       	ror	r20
     e6e:	37 95       	ror	r19
     e70:	27 95       	ror	r18
     e72:	82 2b       	or	r24, r18
     e74:	93 2b       	or	r25, r19
     e76:	a4 2b       	or	r26, r20
     e78:	b5 2b       	or	r27, r21
     e7a:	8c 83       	std	Y+4, r24	; 0x04
     e7c:	9d 83       	std	Y+5, r25	; 0x05
     e7e:	ae 83       	std	Y+6, r26	; 0x06
     e80:	bf 83       	std	Y+7, r27	; 0x07
     e82:	8a 81       	ldd	r24, Y+2	; 0x02
     e84:	9b 81       	ldd	r25, Y+3	; 0x03
     e86:	01 96       	adiw	r24, 0x01	; 1
     e88:	9b 83       	std	Y+3, r25	; 0x03
     e8a:	8a 83       	std	Y+2, r24	; 0x02
     e8c:	05 c0       	rjmp	.+10     	; 0xe98 <_fpadd_parts+0x286>
     e8e:	e9 e8       	ldi	r30, 0x89	; 137
     e90:	f1 e0       	ldi	r31, 0x01	; 1
     e92:	03 c0       	rjmp	.+6      	; 0xe9a <_fpadd_parts+0x288>
     e94:	fb 01       	movw	r30, r22
     e96:	01 c0       	rjmp	.+2      	; 0xe9a <_fpadd_parts+0x288>
     e98:	fe 01       	movw	r30, r28
     e9a:	cf 01       	movw	r24, r30
     e9c:	cd b7       	in	r28, 0x3d	; 61
     e9e:	de b7       	in	r29, 0x3e	; 62
     ea0:	ee e0       	ldi	r30, 0x0E	; 14
     ea2:	0c 94 11 22 	jmp	0x4422	; 0x4422 <__epilogue_restores__+0x8>

00000ea6 <__addsf3>:
     ea6:	a0 e2       	ldi	r26, 0x20	; 32
     ea8:	b0 e0       	ldi	r27, 0x00	; 0
     eaa:	e9 e5       	ldi	r30, 0x59	; 89
     eac:	f7 e0       	ldi	r31, 0x07	; 7
     eae:	0c 94 fd 21 	jmp	0x43fa	; 0x43fa <__prologue_saves__+0x18>
     eb2:	69 83       	std	Y+1, r22	; 0x01
     eb4:	7a 83       	std	Y+2, r23	; 0x02
     eb6:	8b 83       	std	Y+3, r24	; 0x03
     eb8:	9c 83       	std	Y+4, r25	; 0x04
     eba:	2d 83       	std	Y+5, r18	; 0x05
     ebc:	3e 83       	std	Y+6, r19	; 0x06
     ebe:	4f 83       	std	Y+7, r20	; 0x07
     ec0:	58 87       	std	Y+8, r21	; 0x08
     ec2:	89 e0       	ldi	r24, 0x09	; 9
     ec4:	e8 2e       	mov	r14, r24
     ec6:	f1 2c       	mov	r15, r1
     ec8:	ec 0e       	add	r14, r28
     eca:	fd 1e       	adc	r15, r29
     ecc:	ce 01       	movw	r24, r28
     ece:	01 96       	adiw	r24, 0x01	; 1
     ed0:	b7 01       	movw	r22, r14
     ed2:	0e 94 db 0b 	call	0x17b6	; 0x17b6 <__unpack_f>
     ed6:	8e 01       	movw	r16, r28
     ed8:	0f 5e       	subi	r16, 0xEF	; 239
     eda:	1f 4f       	sbci	r17, 0xFF	; 255
     edc:	ce 01       	movw	r24, r28
     ede:	05 96       	adiw	r24, 0x05	; 5
     ee0:	b8 01       	movw	r22, r16
     ee2:	0e 94 db 0b 	call	0x17b6	; 0x17b6 <__unpack_f>
     ee6:	c7 01       	movw	r24, r14
     ee8:	b8 01       	movw	r22, r16
     eea:	ae 01       	movw	r20, r28
     eec:	47 5e       	subi	r20, 0xE7	; 231
     eee:	5f 4f       	sbci	r21, 0xFF	; 255
     ef0:	0e 94 09 06 	call	0xc12	; 0xc12 <_fpadd_parts>
     ef4:	0e 94 0d 0b 	call	0x161a	; 0x161a <__pack_f>
     ef8:	a0 96       	adiw	r28, 0x20	; 32
     efa:	e6 e0       	ldi	r30, 0x06	; 6
     efc:	0c 94 19 22 	jmp	0x4432	; 0x4432 <__epilogue_restores__+0x18>

00000f00 <__subsf3>:
     f00:	a0 e2       	ldi	r26, 0x20	; 32
     f02:	b0 e0       	ldi	r27, 0x00	; 0
     f04:	e6 e8       	ldi	r30, 0x86	; 134
     f06:	f7 e0       	ldi	r31, 0x07	; 7
     f08:	0c 94 fd 21 	jmp	0x43fa	; 0x43fa <__prologue_saves__+0x18>
     f0c:	69 83       	std	Y+1, r22	; 0x01
     f0e:	7a 83       	std	Y+2, r23	; 0x02
     f10:	8b 83       	std	Y+3, r24	; 0x03
     f12:	9c 83       	std	Y+4, r25	; 0x04
     f14:	2d 83       	std	Y+5, r18	; 0x05
     f16:	3e 83       	std	Y+6, r19	; 0x06
     f18:	4f 83       	std	Y+7, r20	; 0x07
     f1a:	58 87       	std	Y+8, r21	; 0x08
     f1c:	8e 01       	movw	r16, r28
     f1e:	07 5f       	subi	r16, 0xF7	; 247
     f20:	1f 4f       	sbci	r17, 0xFF	; 255
     f22:	ce 01       	movw	r24, r28
     f24:	01 96       	adiw	r24, 0x01	; 1
     f26:	b8 01       	movw	r22, r16
     f28:	0e 94 db 0b 	call	0x17b6	; 0x17b6 <__unpack_f>
     f2c:	91 e1       	ldi	r25, 0x11	; 17
     f2e:	e9 2e       	mov	r14, r25
     f30:	f1 2c       	mov	r15, r1
     f32:	ec 0e       	add	r14, r28
     f34:	fd 1e       	adc	r15, r29
     f36:	ce 01       	movw	r24, r28
     f38:	05 96       	adiw	r24, 0x05	; 5
     f3a:	b7 01       	movw	r22, r14
     f3c:	0e 94 db 0b 	call	0x17b6	; 0x17b6 <__unpack_f>
     f40:	8a 89       	ldd	r24, Y+18	; 0x12
     f42:	91 e0       	ldi	r25, 0x01	; 1
     f44:	89 27       	eor	r24, r25
     f46:	8a 8b       	std	Y+18, r24	; 0x12
     f48:	c8 01       	movw	r24, r16
     f4a:	b7 01       	movw	r22, r14
     f4c:	ae 01       	movw	r20, r28
     f4e:	47 5e       	subi	r20, 0xE7	; 231
     f50:	5f 4f       	sbci	r21, 0xFF	; 255
     f52:	0e 94 09 06 	call	0xc12	; 0xc12 <_fpadd_parts>
     f56:	0e 94 0d 0b 	call	0x161a	; 0x161a <__pack_f>
     f5a:	a0 96       	adiw	r28, 0x20	; 32
     f5c:	e6 e0       	ldi	r30, 0x06	; 6
     f5e:	0c 94 19 22 	jmp	0x4432	; 0x4432 <__epilogue_restores__+0x18>

00000f62 <__mulsf3>:
     f62:	a0 e2       	ldi	r26, 0x20	; 32
     f64:	b0 e0       	ldi	r27, 0x00	; 0
     f66:	e7 eb       	ldi	r30, 0xB7	; 183
     f68:	f7 e0       	ldi	r31, 0x07	; 7
     f6a:	0c 94 f1 21 	jmp	0x43e2	; 0x43e2 <__prologue_saves__>
     f6e:	69 83       	std	Y+1, r22	; 0x01
     f70:	7a 83       	std	Y+2, r23	; 0x02
     f72:	8b 83       	std	Y+3, r24	; 0x03
     f74:	9c 83       	std	Y+4, r25	; 0x04
     f76:	2d 83       	std	Y+5, r18	; 0x05
     f78:	3e 83       	std	Y+6, r19	; 0x06
     f7a:	4f 83       	std	Y+7, r20	; 0x07
     f7c:	58 87       	std	Y+8, r21	; 0x08
     f7e:	ce 01       	movw	r24, r28
     f80:	01 96       	adiw	r24, 0x01	; 1
     f82:	be 01       	movw	r22, r28
     f84:	67 5f       	subi	r22, 0xF7	; 247
     f86:	7f 4f       	sbci	r23, 0xFF	; 255
     f88:	0e 94 db 0b 	call	0x17b6	; 0x17b6 <__unpack_f>
     f8c:	ce 01       	movw	r24, r28
     f8e:	05 96       	adiw	r24, 0x05	; 5
     f90:	be 01       	movw	r22, r28
     f92:	6f 5e       	subi	r22, 0xEF	; 239
     f94:	7f 4f       	sbci	r23, 0xFF	; 255
     f96:	0e 94 db 0b 	call	0x17b6	; 0x17b6 <__unpack_f>
     f9a:	99 85       	ldd	r25, Y+9	; 0x09
     f9c:	92 30       	cpi	r25, 0x02	; 2
     f9e:	78 f0       	brcs	.+30     	; 0xfbe <__mulsf3+0x5c>
     fa0:	89 89       	ldd	r24, Y+17	; 0x11
     fa2:	82 30       	cpi	r24, 0x02	; 2
     fa4:	c0 f0       	brcs	.+48     	; 0xfd6 <__mulsf3+0x74>
     fa6:	94 30       	cpi	r25, 0x04	; 4
     fa8:	19 f4       	brne	.+6      	; 0xfb0 <__mulsf3+0x4e>
     faa:	82 30       	cpi	r24, 0x02	; 2
     fac:	41 f4       	brne	.+16     	; 0xfbe <__mulsf3+0x5c>
     fae:	cb c0       	rjmp	.+406    	; 0x1146 <__mulsf3+0x1e4>
     fb0:	84 30       	cpi	r24, 0x04	; 4
     fb2:	19 f4       	brne	.+6      	; 0xfba <__mulsf3+0x58>
     fb4:	92 30       	cpi	r25, 0x02	; 2
     fb6:	79 f4       	brne	.+30     	; 0xfd6 <__mulsf3+0x74>
     fb8:	c6 c0       	rjmp	.+396    	; 0x1146 <__mulsf3+0x1e4>
     fba:	92 30       	cpi	r25, 0x02	; 2
     fbc:	51 f4       	brne	.+20     	; 0xfd2 <__mulsf3+0x70>
     fbe:	81 e0       	ldi	r24, 0x01	; 1
     fc0:	2a 85       	ldd	r18, Y+10	; 0x0a
     fc2:	9a 89       	ldd	r25, Y+18	; 0x12
     fc4:	29 17       	cp	r18, r25
     fc6:	09 f4       	brne	.+2      	; 0xfca <__mulsf3+0x68>
     fc8:	80 e0       	ldi	r24, 0x00	; 0
     fca:	8a 87       	std	Y+10, r24	; 0x0a
     fcc:	ce 01       	movw	r24, r28
     fce:	09 96       	adiw	r24, 0x09	; 9
     fd0:	bc c0       	rjmp	.+376    	; 0x114a <__mulsf3+0x1e8>
     fd2:	82 30       	cpi	r24, 0x02	; 2
     fd4:	51 f4       	brne	.+20     	; 0xfea <__mulsf3+0x88>
     fd6:	81 e0       	ldi	r24, 0x01	; 1
     fd8:	2a 85       	ldd	r18, Y+10	; 0x0a
     fda:	9a 89       	ldd	r25, Y+18	; 0x12
     fdc:	29 17       	cp	r18, r25
     fde:	09 f4       	brne	.+2      	; 0xfe2 <__mulsf3+0x80>
     fe0:	80 e0       	ldi	r24, 0x00	; 0
     fe2:	8a 8b       	std	Y+18, r24	; 0x12
     fe4:	ce 01       	movw	r24, r28
     fe6:	41 96       	adiw	r24, 0x11	; 17
     fe8:	b0 c0       	rjmp	.+352    	; 0x114a <__mulsf3+0x1e8>
     fea:	6d 84       	ldd	r6, Y+13	; 0x0d
     fec:	7e 84       	ldd	r7, Y+14	; 0x0e
     fee:	8f 84       	ldd	r8, Y+15	; 0x0f
     ff0:	98 88       	ldd	r9, Y+16	; 0x10
     ff2:	ed 88       	ldd	r14, Y+21	; 0x15
     ff4:	fe 88       	ldd	r15, Y+22	; 0x16
     ff6:	0f 89       	ldd	r16, Y+23	; 0x17
     ff8:	18 8d       	ldd	r17, Y+24	; 0x18
     ffa:	e0 e2       	ldi	r30, 0x20	; 32
     ffc:	f0 e0       	ldi	r31, 0x00	; 0
     ffe:	80 e0       	ldi	r24, 0x00	; 0
    1000:	90 e0       	ldi	r25, 0x00	; 0
    1002:	dc 01       	movw	r26, r24
    1004:	aa 24       	eor	r10, r10
    1006:	bb 24       	eor	r11, r11
    1008:	65 01       	movw	r12, r10
    100a:	20 e0       	ldi	r18, 0x00	; 0
    100c:	30 e0       	ldi	r19, 0x00	; 0
    100e:	a9 01       	movw	r20, r18
    1010:	b3 01       	movw	r22, r6
    1012:	61 70       	andi	r22, 0x01	; 1
    1014:	70 70       	andi	r23, 0x00	; 0
    1016:	61 15       	cp	r22, r1
    1018:	71 05       	cpc	r23, r1
    101a:	d1 f0       	breq	.+52     	; 0x1050 <__mulsf3+0xee>
    101c:	2e 0d       	add	r18, r14
    101e:	3f 1d       	adc	r19, r15
    1020:	40 1f       	adc	r20, r16
    1022:	51 1f       	adc	r21, r17
    1024:	15 01       	movw	r2, r10
    1026:	26 01       	movw	r4, r12
    1028:	28 0e       	add	r2, r24
    102a:	39 1e       	adc	r3, r25
    102c:	4a 1e       	adc	r4, r26
    102e:	5b 1e       	adc	r5, r27
    1030:	81 e0       	ldi	r24, 0x01	; 1
    1032:	90 e0       	ldi	r25, 0x00	; 0
    1034:	a0 e0       	ldi	r26, 0x00	; 0
    1036:	b0 e0       	ldi	r27, 0x00	; 0
    1038:	2e 15       	cp	r18, r14
    103a:	3f 05       	cpc	r19, r15
    103c:	40 07       	cpc	r20, r16
    103e:	51 07       	cpc	r21, r17
    1040:	18 f0       	brcs	.+6      	; 0x1048 <__mulsf3+0xe6>
    1042:	80 e0       	ldi	r24, 0x00	; 0
    1044:	90 e0       	ldi	r25, 0x00	; 0
    1046:	dc 01       	movw	r26, r24
    1048:	82 0d       	add	r24, r2
    104a:	93 1d       	adc	r25, r3
    104c:	a4 1d       	adc	r26, r4
    104e:	b5 1d       	adc	r27, r5
    1050:	aa 0c       	add	r10, r10
    1052:	bb 1c       	adc	r11, r11
    1054:	cc 1c       	adc	r12, r12
    1056:	dd 1c       	adc	r13, r13
    1058:	17 ff       	sbrs	r17, 7
    105a:	09 c0       	rjmp	.+18     	; 0x106e <__mulsf3+0x10c>
    105c:	61 e0       	ldi	r22, 0x01	; 1
    105e:	26 2e       	mov	r2, r22
    1060:	31 2c       	mov	r3, r1
    1062:	41 2c       	mov	r4, r1
    1064:	51 2c       	mov	r5, r1
    1066:	a2 28       	or	r10, r2
    1068:	b3 28       	or	r11, r3
    106a:	c4 28       	or	r12, r4
    106c:	d5 28       	or	r13, r5
    106e:	31 97       	sbiw	r30, 0x01	; 1
    1070:	49 f0       	breq	.+18     	; 0x1084 <__mulsf3+0x122>
    1072:	ee 0c       	add	r14, r14
    1074:	ff 1c       	adc	r15, r15
    1076:	00 1f       	adc	r16, r16
    1078:	11 1f       	adc	r17, r17
    107a:	96 94       	lsr	r9
    107c:	87 94       	ror	r8
    107e:	77 94       	ror	r7
    1080:	67 94       	ror	r6
    1082:	c6 cf       	rjmp	.-116    	; 0x1010 <__mulsf3+0xae>
    1084:	6b 89       	ldd	r22, Y+19	; 0x13
    1086:	7c 89       	ldd	r23, Y+20	; 0x14
    1088:	eb 85       	ldd	r30, Y+11	; 0x0b
    108a:	fc 85       	ldd	r31, Y+12	; 0x0c
    108c:	6e 0f       	add	r22, r30
    108e:	7f 1f       	adc	r23, r31
    1090:	6e 5f       	subi	r22, 0xFE	; 254
    1092:	7f 4f       	sbci	r23, 0xFF	; 255
    1094:	7c 8f       	std	Y+28, r23	; 0x1c
    1096:	6b 8f       	std	Y+27, r22	; 0x1b
    1098:	61 e0       	ldi	r22, 0x01	; 1
    109a:	ea 85       	ldd	r30, Y+10	; 0x0a
    109c:	7a 89       	ldd	r23, Y+18	; 0x12
    109e:	e7 17       	cp	r30, r23
    10a0:	09 f4       	brne	.+2      	; 0x10a4 <__mulsf3+0x142>
    10a2:	60 e0       	ldi	r22, 0x00	; 0
    10a4:	6a 8f       	std	Y+26, r22	; 0x1a
    10a6:	6b 8d       	ldd	r22, Y+27	; 0x1b
    10a8:	7c 8d       	ldd	r23, Y+28	; 0x1c
    10aa:	10 c0       	rjmp	.+32     	; 0x10cc <__mulsf3+0x16a>
    10ac:	fc 01       	movw	r30, r24
    10ae:	e1 70       	andi	r30, 0x01	; 1
    10b0:	f0 70       	andi	r31, 0x00	; 0
    10b2:	30 97       	sbiw	r30, 0x00	; 0
    10b4:	29 f0       	breq	.+10     	; 0x10c0 <__mulsf3+0x15e>
    10b6:	56 95       	lsr	r21
    10b8:	47 95       	ror	r20
    10ba:	37 95       	ror	r19
    10bc:	27 95       	ror	r18
    10be:	50 68       	ori	r21, 0x80	; 128
    10c0:	b6 95       	lsr	r27
    10c2:	a7 95       	ror	r26
    10c4:	97 95       	ror	r25
    10c6:	87 95       	ror	r24
    10c8:	6f 5f       	subi	r22, 0xFF	; 255
    10ca:	7f 4f       	sbci	r23, 0xFF	; 255
    10cc:	b7 fd       	sbrc	r27, 7
    10ce:	ee cf       	rjmp	.-36     	; 0x10ac <__mulsf3+0x14a>
    10d0:	0c c0       	rjmp	.+24     	; 0x10ea <__mulsf3+0x188>
    10d2:	88 0f       	add	r24, r24
    10d4:	99 1f       	adc	r25, r25
    10d6:	aa 1f       	adc	r26, r26
    10d8:	bb 1f       	adc	r27, r27
    10da:	57 fd       	sbrc	r21, 7
    10dc:	81 60       	ori	r24, 0x01	; 1
    10de:	22 0f       	add	r18, r18
    10e0:	33 1f       	adc	r19, r19
    10e2:	44 1f       	adc	r20, r20
    10e4:	55 1f       	adc	r21, r21
    10e6:	61 50       	subi	r22, 0x01	; 1
    10e8:	70 40       	sbci	r23, 0x00	; 0
    10ea:	80 30       	cpi	r24, 0x00	; 0
    10ec:	e0 e0       	ldi	r30, 0x00	; 0
    10ee:	9e 07       	cpc	r25, r30
    10f0:	e0 e0       	ldi	r30, 0x00	; 0
    10f2:	ae 07       	cpc	r26, r30
    10f4:	e0 e4       	ldi	r30, 0x40	; 64
    10f6:	be 07       	cpc	r27, r30
    10f8:	60 f3       	brcs	.-40     	; 0x10d2 <__mulsf3+0x170>
    10fa:	6b 8f       	std	Y+27, r22	; 0x1b
    10fc:	7c 8f       	std	Y+28, r23	; 0x1c
    10fe:	6f e7       	ldi	r22, 0x7F	; 127
    1100:	e6 2e       	mov	r14, r22
    1102:	f1 2c       	mov	r15, r1
    1104:	01 2d       	mov	r16, r1
    1106:	11 2d       	mov	r17, r1
    1108:	e8 22       	and	r14, r24
    110a:	f9 22       	and	r15, r25
    110c:	0a 23       	and	r16, r26
    110e:	1b 23       	and	r17, r27
    1110:	60 e4       	ldi	r22, 0x40	; 64
    1112:	e6 16       	cp	r14, r22
    1114:	f1 04       	cpc	r15, r1
    1116:	01 05       	cpc	r16, r1
    1118:	11 05       	cpc	r17, r1
    111a:	61 f4       	brne	.+24     	; 0x1134 <__mulsf3+0x1d2>
    111c:	87 fd       	sbrc	r24, 7
    111e:	0a c0       	rjmp	.+20     	; 0x1134 <__mulsf3+0x1d2>
    1120:	21 15       	cp	r18, r1
    1122:	31 05       	cpc	r19, r1
    1124:	41 05       	cpc	r20, r1
    1126:	51 05       	cpc	r21, r1
    1128:	29 f0       	breq	.+10     	; 0x1134 <__mulsf3+0x1d2>
    112a:	80 5c       	subi	r24, 0xC0	; 192
    112c:	9f 4f       	sbci	r25, 0xFF	; 255
    112e:	af 4f       	sbci	r26, 0xFF	; 255
    1130:	bf 4f       	sbci	r27, 0xFF	; 255
    1132:	80 78       	andi	r24, 0x80	; 128
    1134:	8d 8f       	std	Y+29, r24	; 0x1d
    1136:	9e 8f       	std	Y+30, r25	; 0x1e
    1138:	af 8f       	std	Y+31, r26	; 0x1f
    113a:	b8 a3       	std	Y+32, r27	; 0x20
    113c:	83 e0       	ldi	r24, 0x03	; 3
    113e:	89 8f       	std	Y+25, r24	; 0x19
    1140:	ce 01       	movw	r24, r28
    1142:	49 96       	adiw	r24, 0x19	; 25
    1144:	02 c0       	rjmp	.+4      	; 0x114a <__mulsf3+0x1e8>
    1146:	89 e8       	ldi	r24, 0x89	; 137
    1148:	91 e0       	ldi	r25, 0x01	; 1
    114a:	0e 94 0d 0b 	call	0x161a	; 0x161a <__pack_f>
    114e:	a0 96       	adiw	r28, 0x20	; 32
    1150:	e2 e1       	ldi	r30, 0x12	; 18
    1152:	0c 94 0d 22 	jmp	0x441a	; 0x441a <__epilogue_restores__>

00001156 <__divsf3>:
    1156:	a8 e1       	ldi	r26, 0x18	; 24
    1158:	b0 e0       	ldi	r27, 0x00	; 0
    115a:	e1 eb       	ldi	r30, 0xB1	; 177
    115c:	f8 e0       	ldi	r31, 0x08	; 8
    115e:	0c 94 f9 21 	jmp	0x43f2	; 0x43f2 <__prologue_saves__+0x10>
    1162:	69 83       	std	Y+1, r22	; 0x01
    1164:	7a 83       	std	Y+2, r23	; 0x02
    1166:	8b 83       	std	Y+3, r24	; 0x03
    1168:	9c 83       	std	Y+4, r25	; 0x04
    116a:	2d 83       	std	Y+5, r18	; 0x05
    116c:	3e 83       	std	Y+6, r19	; 0x06
    116e:	4f 83       	std	Y+7, r20	; 0x07
    1170:	58 87       	std	Y+8, r21	; 0x08
    1172:	8e 01       	movw	r16, r28
    1174:	07 5f       	subi	r16, 0xF7	; 247
    1176:	1f 4f       	sbci	r17, 0xFF	; 255
    1178:	ce 01       	movw	r24, r28
    117a:	01 96       	adiw	r24, 0x01	; 1
    117c:	b8 01       	movw	r22, r16
    117e:	0e 94 db 0b 	call	0x17b6	; 0x17b6 <__unpack_f>
    1182:	81 e1       	ldi	r24, 0x11	; 17
    1184:	e8 2e       	mov	r14, r24
    1186:	f1 2c       	mov	r15, r1
    1188:	ec 0e       	add	r14, r28
    118a:	fd 1e       	adc	r15, r29
    118c:	ce 01       	movw	r24, r28
    118e:	05 96       	adiw	r24, 0x05	; 5
    1190:	b7 01       	movw	r22, r14
    1192:	0e 94 db 0b 	call	0x17b6	; 0x17b6 <__unpack_f>
    1196:	99 85       	ldd	r25, Y+9	; 0x09
    1198:	92 30       	cpi	r25, 0x02	; 2
    119a:	08 f4       	brcc	.+2      	; 0x119e <__divsf3+0x48>
    119c:	83 c0       	rjmp	.+262    	; 0x12a4 <__divsf3+0x14e>
    119e:	89 89       	ldd	r24, Y+17	; 0x11
    11a0:	82 30       	cpi	r24, 0x02	; 2
    11a2:	08 f4       	brcc	.+2      	; 0x11a6 <__divsf3+0x50>
    11a4:	7b c0       	rjmp	.+246    	; 0x129c <__divsf3+0x146>
    11a6:	2a 85       	ldd	r18, Y+10	; 0x0a
    11a8:	3a 89       	ldd	r19, Y+18	; 0x12
    11aa:	23 27       	eor	r18, r19
    11ac:	2a 87       	std	Y+10, r18	; 0x0a
    11ae:	94 30       	cpi	r25, 0x04	; 4
    11b0:	11 f0       	breq	.+4      	; 0x11b6 <__divsf3+0x60>
    11b2:	92 30       	cpi	r25, 0x02	; 2
    11b4:	21 f4       	brne	.+8      	; 0x11be <__divsf3+0x68>
    11b6:	98 17       	cp	r25, r24
    11b8:	09 f0       	breq	.+2      	; 0x11bc <__divsf3+0x66>
    11ba:	6c c0       	rjmp	.+216    	; 0x1294 <__divsf3+0x13e>
    11bc:	71 c0       	rjmp	.+226    	; 0x12a0 <__divsf3+0x14a>
    11be:	84 30       	cpi	r24, 0x04	; 4
    11c0:	39 f4       	brne	.+14     	; 0x11d0 <__divsf3+0x7a>
    11c2:	1d 86       	std	Y+13, r1	; 0x0d
    11c4:	1e 86       	std	Y+14, r1	; 0x0e
    11c6:	1f 86       	std	Y+15, r1	; 0x0f
    11c8:	18 8a       	std	Y+16, r1	; 0x10
    11ca:	1c 86       	std	Y+12, r1	; 0x0c
    11cc:	1b 86       	std	Y+11, r1	; 0x0b
    11ce:	6a c0       	rjmp	.+212    	; 0x12a4 <__divsf3+0x14e>
    11d0:	82 30       	cpi	r24, 0x02	; 2
    11d2:	19 f4       	brne	.+6      	; 0x11da <__divsf3+0x84>
    11d4:	84 e0       	ldi	r24, 0x04	; 4
    11d6:	89 87       	std	Y+9, r24	; 0x09
    11d8:	65 c0       	rjmp	.+202    	; 0x12a4 <__divsf3+0x14e>
    11da:	8b 85       	ldd	r24, Y+11	; 0x0b
    11dc:	9c 85       	ldd	r25, Y+12	; 0x0c
    11de:	2b 89       	ldd	r18, Y+19	; 0x13
    11e0:	3c 89       	ldd	r19, Y+20	; 0x14
    11e2:	82 1b       	sub	r24, r18
    11e4:	93 0b       	sbc	r25, r19
    11e6:	9c 87       	std	Y+12, r25	; 0x0c
    11e8:	8b 87       	std	Y+11, r24	; 0x0b
    11ea:	2d 85       	ldd	r18, Y+13	; 0x0d
    11ec:	3e 85       	ldd	r19, Y+14	; 0x0e
    11ee:	4f 85       	ldd	r20, Y+15	; 0x0f
    11f0:	58 89       	ldd	r21, Y+16	; 0x10
    11f2:	ed 88       	ldd	r14, Y+21	; 0x15
    11f4:	fe 88       	ldd	r15, Y+22	; 0x16
    11f6:	0f 89       	ldd	r16, Y+23	; 0x17
    11f8:	18 8d       	ldd	r17, Y+24	; 0x18
    11fa:	2e 15       	cp	r18, r14
    11fc:	3f 05       	cpc	r19, r15
    11fe:	40 07       	cpc	r20, r16
    1200:	51 07       	cpc	r21, r17
    1202:	38 f4       	brcc	.+14     	; 0x1212 <__divsf3+0xbc>
    1204:	22 0f       	add	r18, r18
    1206:	33 1f       	adc	r19, r19
    1208:	44 1f       	adc	r20, r20
    120a:	55 1f       	adc	r21, r21
    120c:	01 97       	sbiw	r24, 0x01	; 1
    120e:	9c 87       	std	Y+12, r25	; 0x0c
    1210:	8b 87       	std	Y+11, r24	; 0x0b
    1212:	6f e1       	ldi	r22, 0x1F	; 31
    1214:	70 e0       	ldi	r23, 0x00	; 0
    1216:	a1 2c       	mov	r10, r1
    1218:	b1 2c       	mov	r11, r1
    121a:	c1 2c       	mov	r12, r1
    121c:	a0 e4       	ldi	r26, 0x40	; 64
    121e:	da 2e       	mov	r13, r26
    1220:	80 e0       	ldi	r24, 0x00	; 0
    1222:	90 e0       	ldi	r25, 0x00	; 0
    1224:	dc 01       	movw	r26, r24
    1226:	2e 15       	cp	r18, r14
    1228:	3f 05       	cpc	r19, r15
    122a:	40 07       	cpc	r20, r16
    122c:	51 07       	cpc	r21, r17
    122e:	40 f0       	brcs	.+16     	; 0x1240 <__divsf3+0xea>
    1230:	8a 29       	or	r24, r10
    1232:	9b 29       	or	r25, r11
    1234:	ac 29       	or	r26, r12
    1236:	bd 29       	or	r27, r13
    1238:	2e 19       	sub	r18, r14
    123a:	3f 09       	sbc	r19, r15
    123c:	40 0b       	sbc	r20, r16
    123e:	51 0b       	sbc	r21, r17
    1240:	d6 94       	lsr	r13
    1242:	c7 94       	ror	r12
    1244:	b7 94       	ror	r11
    1246:	a7 94       	ror	r10
    1248:	22 0f       	add	r18, r18
    124a:	33 1f       	adc	r19, r19
    124c:	44 1f       	adc	r20, r20
    124e:	55 1f       	adc	r21, r21
    1250:	61 50       	subi	r22, 0x01	; 1
    1252:	70 40       	sbci	r23, 0x00	; 0
    1254:	41 f7       	brne	.-48     	; 0x1226 <__divsf3+0xd0>
    1256:	6f e7       	ldi	r22, 0x7F	; 127
    1258:	e6 2e       	mov	r14, r22
    125a:	f1 2c       	mov	r15, r1
    125c:	01 2d       	mov	r16, r1
    125e:	11 2d       	mov	r17, r1
    1260:	e8 22       	and	r14, r24
    1262:	f9 22       	and	r15, r25
    1264:	0a 23       	and	r16, r26
    1266:	1b 23       	and	r17, r27
    1268:	60 e4       	ldi	r22, 0x40	; 64
    126a:	e6 16       	cp	r14, r22
    126c:	f1 04       	cpc	r15, r1
    126e:	01 05       	cpc	r16, r1
    1270:	11 05       	cpc	r17, r1
    1272:	61 f4       	brne	.+24     	; 0x128c <__divsf3+0x136>
    1274:	87 fd       	sbrc	r24, 7
    1276:	0a c0       	rjmp	.+20     	; 0x128c <__divsf3+0x136>
    1278:	21 15       	cp	r18, r1
    127a:	31 05       	cpc	r19, r1
    127c:	41 05       	cpc	r20, r1
    127e:	51 05       	cpc	r21, r1
    1280:	29 f0       	breq	.+10     	; 0x128c <__divsf3+0x136>
    1282:	80 5c       	subi	r24, 0xC0	; 192
    1284:	9f 4f       	sbci	r25, 0xFF	; 255
    1286:	af 4f       	sbci	r26, 0xFF	; 255
    1288:	bf 4f       	sbci	r27, 0xFF	; 255
    128a:	80 78       	andi	r24, 0x80	; 128
    128c:	8d 87       	std	Y+13, r24	; 0x0d
    128e:	9e 87       	std	Y+14, r25	; 0x0e
    1290:	af 87       	std	Y+15, r26	; 0x0f
    1292:	b8 8b       	std	Y+16, r27	; 0x10
    1294:	8e 01       	movw	r16, r28
    1296:	07 5f       	subi	r16, 0xF7	; 247
    1298:	1f 4f       	sbci	r17, 0xFF	; 255
    129a:	04 c0       	rjmp	.+8      	; 0x12a4 <__divsf3+0x14e>
    129c:	87 01       	movw	r16, r14
    129e:	02 c0       	rjmp	.+4      	; 0x12a4 <__divsf3+0x14e>
    12a0:	09 e8       	ldi	r16, 0x89	; 137
    12a2:	11 e0       	ldi	r17, 0x01	; 1
    12a4:	c8 01       	movw	r24, r16
    12a6:	0e 94 0d 0b 	call	0x161a	; 0x161a <__pack_f>
    12aa:	68 96       	adiw	r28, 0x18	; 24
    12ac:	ea e0       	ldi	r30, 0x0A	; 10
    12ae:	0c 94 15 22 	jmp	0x442a	; 0x442a <__epilogue_restores__+0x10>

000012b2 <__gesf2>:
    12b2:	a8 e1       	ldi	r26, 0x18	; 24
    12b4:	b0 e0       	ldi	r27, 0x00	; 0
    12b6:	ef e5       	ldi	r30, 0x5F	; 95
    12b8:	f9 e0       	ldi	r31, 0x09	; 9
    12ba:	0c 94 fd 21 	jmp	0x43fa	; 0x43fa <__prologue_saves__+0x18>
    12be:	69 83       	std	Y+1, r22	; 0x01
    12c0:	7a 83       	std	Y+2, r23	; 0x02
    12c2:	8b 83       	std	Y+3, r24	; 0x03
    12c4:	9c 83       	std	Y+4, r25	; 0x04
    12c6:	2d 83       	std	Y+5, r18	; 0x05
    12c8:	3e 83       	std	Y+6, r19	; 0x06
    12ca:	4f 83       	std	Y+7, r20	; 0x07
    12cc:	58 87       	std	Y+8, r21	; 0x08
    12ce:	8e 01       	movw	r16, r28
    12d0:	07 5f       	subi	r16, 0xF7	; 247
    12d2:	1f 4f       	sbci	r17, 0xFF	; 255
    12d4:	ce 01       	movw	r24, r28
    12d6:	01 96       	adiw	r24, 0x01	; 1
    12d8:	b8 01       	movw	r22, r16
    12da:	0e 94 db 0b 	call	0x17b6	; 0x17b6 <__unpack_f>
    12de:	81 e1       	ldi	r24, 0x11	; 17
    12e0:	e8 2e       	mov	r14, r24
    12e2:	f1 2c       	mov	r15, r1
    12e4:	ec 0e       	add	r14, r28
    12e6:	fd 1e       	adc	r15, r29
    12e8:	ce 01       	movw	r24, r28
    12ea:	05 96       	adiw	r24, 0x05	; 5
    12ec:	b7 01       	movw	r22, r14
    12ee:	0e 94 db 0b 	call	0x17b6	; 0x17b6 <__unpack_f>
    12f2:	89 85       	ldd	r24, Y+9	; 0x09
    12f4:	82 30       	cpi	r24, 0x02	; 2
    12f6:	40 f0       	brcs	.+16     	; 0x1308 <__gesf2+0x56>
    12f8:	89 89       	ldd	r24, Y+17	; 0x11
    12fa:	82 30       	cpi	r24, 0x02	; 2
    12fc:	28 f0       	brcs	.+10     	; 0x1308 <__gesf2+0x56>
    12fe:	c8 01       	movw	r24, r16
    1300:	b7 01       	movw	r22, r14
    1302:	0e 94 44 0c 	call	0x1888	; 0x1888 <__fpcmp_parts_f>
    1306:	01 c0       	rjmp	.+2      	; 0x130a <__gesf2+0x58>
    1308:	8f ef       	ldi	r24, 0xFF	; 255
    130a:	68 96       	adiw	r28, 0x18	; 24
    130c:	e6 e0       	ldi	r30, 0x06	; 6
    130e:	0c 94 19 22 	jmp	0x4432	; 0x4432 <__epilogue_restores__+0x18>

00001312 <__floatsisf>:
    1312:	a8 e0       	ldi	r26, 0x08	; 8
    1314:	b0 e0       	ldi	r27, 0x00	; 0
    1316:	ef e8       	ldi	r30, 0x8F	; 143
    1318:	f9 e0       	ldi	r31, 0x09	; 9
    131a:	0c 94 fd 21 	jmp	0x43fa	; 0x43fa <__prologue_saves__+0x18>
    131e:	7b 01       	movw	r14, r22
    1320:	8c 01       	movw	r16, r24
    1322:	83 e0       	ldi	r24, 0x03	; 3
    1324:	89 83       	std	Y+1, r24	; 0x01
    1326:	d8 01       	movw	r26, r16
    1328:	c7 01       	movw	r24, r14
    132a:	88 27       	eor	r24, r24
    132c:	b7 fd       	sbrc	r27, 7
    132e:	83 95       	inc	r24
    1330:	99 27       	eor	r25, r25
    1332:	aa 27       	eor	r26, r26
    1334:	bb 27       	eor	r27, r27
    1336:	28 2f       	mov	r18, r24
    1338:	8a 83       	std	Y+2, r24	; 0x02
    133a:	e1 14       	cp	r14, r1
    133c:	f1 04       	cpc	r15, r1
    133e:	01 05       	cpc	r16, r1
    1340:	11 05       	cpc	r17, r1
    1342:	19 f4       	brne	.+6      	; 0x134a <__floatsisf+0x38>
    1344:	82 e0       	ldi	r24, 0x02	; 2
    1346:	89 83       	std	Y+1, r24	; 0x01
    1348:	37 c0       	rjmp	.+110    	; 0x13b8 <__floatsisf+0xa6>
    134a:	8e e1       	ldi	r24, 0x1E	; 30
    134c:	90 e0       	ldi	r25, 0x00	; 0
    134e:	9c 83       	std	Y+4, r25	; 0x04
    1350:	8b 83       	std	Y+3, r24	; 0x03
    1352:	22 23       	and	r18, r18
    1354:	89 f0       	breq	.+34     	; 0x1378 <__floatsisf+0x66>
    1356:	80 e0       	ldi	r24, 0x00	; 0
    1358:	e8 16       	cp	r14, r24
    135a:	80 e0       	ldi	r24, 0x00	; 0
    135c:	f8 06       	cpc	r15, r24
    135e:	80 e0       	ldi	r24, 0x00	; 0
    1360:	08 07       	cpc	r16, r24
    1362:	80 e8       	ldi	r24, 0x80	; 128
    1364:	18 07       	cpc	r17, r24
    1366:	69 f1       	breq	.+90     	; 0x13c2 <__floatsisf+0xb0>
    1368:	10 95       	com	r17
    136a:	00 95       	com	r16
    136c:	f0 94       	com	r15
    136e:	e0 94       	com	r14
    1370:	e1 1c       	adc	r14, r1
    1372:	f1 1c       	adc	r15, r1
    1374:	01 1d       	adc	r16, r1
    1376:	11 1d       	adc	r17, r1
    1378:	ed 82       	std	Y+5, r14	; 0x05
    137a:	fe 82       	std	Y+6, r15	; 0x06
    137c:	0f 83       	std	Y+7, r16	; 0x07
    137e:	18 87       	std	Y+8, r17	; 0x08
    1380:	c8 01       	movw	r24, r16
    1382:	b7 01       	movw	r22, r14
    1384:	0e 94 b3 0a 	call	0x1566	; 0x1566 <__clzsi2>
    1388:	9c 01       	movw	r18, r24
    138a:	21 50       	subi	r18, 0x01	; 1
    138c:	30 40       	sbci	r19, 0x00	; 0
    138e:	12 16       	cp	r1, r18
    1390:	13 06       	cpc	r1, r19
    1392:	94 f4       	brge	.+36     	; 0x13b8 <__floatsisf+0xa6>
    1394:	02 2e       	mov	r0, r18
    1396:	04 c0       	rjmp	.+8      	; 0x13a0 <__floatsisf+0x8e>
    1398:	ee 0c       	add	r14, r14
    139a:	ff 1c       	adc	r15, r15
    139c:	00 1f       	adc	r16, r16
    139e:	11 1f       	adc	r17, r17
    13a0:	0a 94       	dec	r0
    13a2:	d2 f7       	brpl	.-12     	; 0x1398 <__floatsisf+0x86>
    13a4:	ed 82       	std	Y+5, r14	; 0x05
    13a6:	fe 82       	std	Y+6, r15	; 0x06
    13a8:	0f 83       	std	Y+7, r16	; 0x07
    13aa:	18 87       	std	Y+8, r17	; 0x08
    13ac:	8e e1       	ldi	r24, 0x1E	; 30
    13ae:	90 e0       	ldi	r25, 0x00	; 0
    13b0:	82 1b       	sub	r24, r18
    13b2:	93 0b       	sbc	r25, r19
    13b4:	9c 83       	std	Y+4, r25	; 0x04
    13b6:	8b 83       	std	Y+3, r24	; 0x03
    13b8:	ce 01       	movw	r24, r28
    13ba:	01 96       	adiw	r24, 0x01	; 1
    13bc:	0e 94 0d 0b 	call	0x161a	; 0x161a <__pack_f>
    13c0:	04 c0       	rjmp	.+8      	; 0x13ca <__floatsisf+0xb8>
    13c2:	60 e0       	ldi	r22, 0x00	; 0
    13c4:	70 e0       	ldi	r23, 0x00	; 0
    13c6:	80 e0       	ldi	r24, 0x00	; 0
    13c8:	9f ec       	ldi	r25, 0xCF	; 207
    13ca:	28 96       	adiw	r28, 0x08	; 8
    13cc:	e6 e0       	ldi	r30, 0x06	; 6
    13ce:	0c 94 19 22 	jmp	0x4432	; 0x4432 <__epilogue_restores__+0x18>

000013d2 <__fixsfsi>:
    13d2:	ac e0       	ldi	r26, 0x0C	; 12
    13d4:	b0 e0       	ldi	r27, 0x00	; 0
    13d6:	ef ee       	ldi	r30, 0xEF	; 239
    13d8:	f9 e0       	ldi	r31, 0x09	; 9
    13da:	0c 94 01 22 	jmp	0x4402	; 0x4402 <__prologue_saves__+0x20>
    13de:	69 83       	std	Y+1, r22	; 0x01
    13e0:	7a 83       	std	Y+2, r23	; 0x02
    13e2:	8b 83       	std	Y+3, r24	; 0x03
    13e4:	9c 83       	std	Y+4, r25	; 0x04
    13e6:	ce 01       	movw	r24, r28
    13e8:	01 96       	adiw	r24, 0x01	; 1
    13ea:	be 01       	movw	r22, r28
    13ec:	6b 5f       	subi	r22, 0xFB	; 251
    13ee:	7f 4f       	sbci	r23, 0xFF	; 255
    13f0:	0e 94 db 0b 	call	0x17b6	; 0x17b6 <__unpack_f>
    13f4:	8d 81       	ldd	r24, Y+5	; 0x05
    13f6:	82 30       	cpi	r24, 0x02	; 2
    13f8:	81 f1       	breq	.+96     	; 0x145a <__fixsfsi+0x88>
    13fa:	82 30       	cpi	r24, 0x02	; 2
    13fc:	70 f1       	brcs	.+92     	; 0x145a <__fixsfsi+0x88>
    13fe:	84 30       	cpi	r24, 0x04	; 4
    1400:	21 f4       	brne	.+8      	; 0x140a <__fixsfsi+0x38>
    1402:	8e 81       	ldd	r24, Y+6	; 0x06
    1404:	88 23       	and	r24, r24
    1406:	69 f1       	breq	.+90     	; 0x1462 <__fixsfsi+0x90>
    1408:	0a c0       	rjmp	.+20     	; 0x141e <__fixsfsi+0x4c>
    140a:	2f 81       	ldd	r18, Y+7	; 0x07
    140c:	38 85       	ldd	r19, Y+8	; 0x08
    140e:	37 fd       	sbrc	r19, 7
    1410:	24 c0       	rjmp	.+72     	; 0x145a <__fixsfsi+0x88>
    1412:	6e 81       	ldd	r22, Y+6	; 0x06
    1414:	2f 31       	cpi	r18, 0x1F	; 31
    1416:	31 05       	cpc	r19, r1
    1418:	3c f0       	brlt	.+14     	; 0x1428 <__fixsfsi+0x56>
    141a:	66 23       	and	r22, r22
    141c:	11 f1       	breq	.+68     	; 0x1462 <__fixsfsi+0x90>
    141e:	20 e0       	ldi	r18, 0x00	; 0
    1420:	30 e0       	ldi	r19, 0x00	; 0
    1422:	40 e0       	ldi	r20, 0x00	; 0
    1424:	50 e8       	ldi	r21, 0x80	; 128
    1426:	21 c0       	rjmp	.+66     	; 0x146a <__fixsfsi+0x98>
    1428:	8e e1       	ldi	r24, 0x1E	; 30
    142a:	90 e0       	ldi	r25, 0x00	; 0
    142c:	82 1b       	sub	r24, r18
    142e:	93 0b       	sbc	r25, r19
    1430:	29 85       	ldd	r18, Y+9	; 0x09
    1432:	3a 85       	ldd	r19, Y+10	; 0x0a
    1434:	4b 85       	ldd	r20, Y+11	; 0x0b
    1436:	5c 85       	ldd	r21, Y+12	; 0x0c
    1438:	04 c0       	rjmp	.+8      	; 0x1442 <__fixsfsi+0x70>
    143a:	56 95       	lsr	r21
    143c:	47 95       	ror	r20
    143e:	37 95       	ror	r19
    1440:	27 95       	ror	r18
    1442:	8a 95       	dec	r24
    1444:	d2 f7       	brpl	.-12     	; 0x143a <__fixsfsi+0x68>
    1446:	66 23       	and	r22, r22
    1448:	81 f0       	breq	.+32     	; 0x146a <__fixsfsi+0x98>
    144a:	50 95       	com	r21
    144c:	40 95       	com	r20
    144e:	30 95       	com	r19
    1450:	21 95       	neg	r18
    1452:	3f 4f       	sbci	r19, 0xFF	; 255
    1454:	4f 4f       	sbci	r20, 0xFF	; 255
    1456:	5f 4f       	sbci	r21, 0xFF	; 255
    1458:	08 c0       	rjmp	.+16     	; 0x146a <__fixsfsi+0x98>
    145a:	20 e0       	ldi	r18, 0x00	; 0
    145c:	30 e0       	ldi	r19, 0x00	; 0
    145e:	a9 01       	movw	r20, r18
    1460:	04 c0       	rjmp	.+8      	; 0x146a <__fixsfsi+0x98>
    1462:	2f ef       	ldi	r18, 0xFF	; 255
    1464:	3f ef       	ldi	r19, 0xFF	; 255
    1466:	4f ef       	ldi	r20, 0xFF	; 255
    1468:	5f e7       	ldi	r21, 0x7F	; 127
    146a:	b9 01       	movw	r22, r18
    146c:	ca 01       	movw	r24, r20
    146e:	2c 96       	adiw	r28, 0x0c	; 12
    1470:	e2 e0       	ldi	r30, 0x02	; 2
    1472:	0c 94 1d 22 	jmp	0x443a	; 0x443a <__epilogue_restores__+0x20>

00001476 <__floatunsisf>:
    1476:	a8 e0       	ldi	r26, 0x08	; 8
    1478:	b0 e0       	ldi	r27, 0x00	; 0
    147a:	e1 e4       	ldi	r30, 0x41	; 65
    147c:	fa e0       	ldi	r31, 0x0A	; 10
    147e:	0c 94 fb 21 	jmp	0x43f6	; 0x43f6 <__prologue_saves__+0x14>
    1482:	7b 01       	movw	r14, r22
    1484:	8c 01       	movw	r16, r24
    1486:	1a 82       	std	Y+2, r1	; 0x02
    1488:	61 15       	cp	r22, r1
    148a:	71 05       	cpc	r23, r1
    148c:	81 05       	cpc	r24, r1
    148e:	91 05       	cpc	r25, r1
    1490:	19 f4       	brne	.+6      	; 0x1498 <__floatunsisf+0x22>
    1492:	82 e0       	ldi	r24, 0x02	; 2
    1494:	89 83       	std	Y+1, r24	; 0x01
    1496:	5f c0       	rjmp	.+190    	; 0x1556 <__floatunsisf+0xe0>
    1498:	83 e0       	ldi	r24, 0x03	; 3
    149a:	89 83       	std	Y+1, r24	; 0x01
    149c:	8e e1       	ldi	r24, 0x1E	; 30
    149e:	c8 2e       	mov	r12, r24
    14a0:	d1 2c       	mov	r13, r1
    14a2:	dc 82       	std	Y+4, r13	; 0x04
    14a4:	cb 82       	std	Y+3, r12	; 0x03
    14a6:	ed 82       	std	Y+5, r14	; 0x05
    14a8:	fe 82       	std	Y+6, r15	; 0x06
    14aa:	0f 83       	std	Y+7, r16	; 0x07
    14ac:	18 87       	std	Y+8, r17	; 0x08
    14ae:	c8 01       	movw	r24, r16
    14b0:	b7 01       	movw	r22, r14
    14b2:	0e 94 b3 0a 	call	0x1566	; 0x1566 <__clzsi2>
    14b6:	fc 01       	movw	r30, r24
    14b8:	31 97       	sbiw	r30, 0x01	; 1
    14ba:	f7 ff       	sbrs	r31, 7
    14bc:	3a c0       	rjmp	.+116    	; 0x1532 <__floatunsisf+0xbc>
    14be:	aa 27       	eor	r26, r26
    14c0:	bb 27       	eor	r27, r27
    14c2:	ae 1b       	sub	r26, r30
    14c4:	bf 0b       	sbc	r27, r31
    14c6:	21 e0       	ldi	r18, 0x01	; 1
    14c8:	30 e0       	ldi	r19, 0x00	; 0
    14ca:	40 e0       	ldi	r20, 0x00	; 0
    14cc:	50 e0       	ldi	r21, 0x00	; 0
    14ce:	0a 2e       	mov	r0, r26
    14d0:	04 c0       	rjmp	.+8      	; 0x14da <__floatunsisf+0x64>
    14d2:	22 0f       	add	r18, r18
    14d4:	33 1f       	adc	r19, r19
    14d6:	44 1f       	adc	r20, r20
    14d8:	55 1f       	adc	r21, r21
    14da:	0a 94       	dec	r0
    14dc:	d2 f7       	brpl	.-12     	; 0x14d2 <__floatunsisf+0x5c>
    14de:	21 50       	subi	r18, 0x01	; 1
    14e0:	30 40       	sbci	r19, 0x00	; 0
    14e2:	40 40       	sbci	r20, 0x00	; 0
    14e4:	50 40       	sbci	r21, 0x00	; 0
    14e6:	2e 21       	and	r18, r14
    14e8:	3f 21       	and	r19, r15
    14ea:	40 23       	and	r20, r16
    14ec:	51 23       	and	r21, r17
    14ee:	61 e0       	ldi	r22, 0x01	; 1
    14f0:	70 e0       	ldi	r23, 0x00	; 0
    14f2:	80 e0       	ldi	r24, 0x00	; 0
    14f4:	90 e0       	ldi	r25, 0x00	; 0
    14f6:	21 15       	cp	r18, r1
    14f8:	31 05       	cpc	r19, r1
    14fa:	41 05       	cpc	r20, r1
    14fc:	51 05       	cpc	r21, r1
    14fe:	19 f4       	brne	.+6      	; 0x1506 <__floatunsisf+0x90>
    1500:	60 e0       	ldi	r22, 0x00	; 0
    1502:	70 e0       	ldi	r23, 0x00	; 0
    1504:	cb 01       	movw	r24, r22
    1506:	04 c0       	rjmp	.+8      	; 0x1510 <__floatunsisf+0x9a>
    1508:	16 95       	lsr	r17
    150a:	07 95       	ror	r16
    150c:	f7 94       	ror	r15
    150e:	e7 94       	ror	r14
    1510:	aa 95       	dec	r26
    1512:	d2 f7       	brpl	.-12     	; 0x1508 <__floatunsisf+0x92>
    1514:	e6 2a       	or	r14, r22
    1516:	f7 2a       	or	r15, r23
    1518:	08 2b       	or	r16, r24
    151a:	19 2b       	or	r17, r25
    151c:	ed 82       	std	Y+5, r14	; 0x05
    151e:	fe 82       	std	Y+6, r15	; 0x06
    1520:	0f 83       	std	Y+7, r16	; 0x07
    1522:	18 87       	std	Y+8, r17	; 0x08
    1524:	8e e1       	ldi	r24, 0x1E	; 30
    1526:	90 e0       	ldi	r25, 0x00	; 0
    1528:	8e 1b       	sub	r24, r30
    152a:	9f 0b       	sbc	r25, r31
    152c:	9c 83       	std	Y+4, r25	; 0x04
    152e:	8b 83       	std	Y+3, r24	; 0x03
    1530:	12 c0       	rjmp	.+36     	; 0x1556 <__floatunsisf+0xe0>
    1532:	30 97       	sbiw	r30, 0x00	; 0
    1534:	81 f0       	breq	.+32     	; 0x1556 <__floatunsisf+0xe0>
    1536:	0e 2e       	mov	r0, r30
    1538:	04 c0       	rjmp	.+8      	; 0x1542 <__floatunsisf+0xcc>
    153a:	ee 0c       	add	r14, r14
    153c:	ff 1c       	adc	r15, r15
    153e:	00 1f       	adc	r16, r16
    1540:	11 1f       	adc	r17, r17
    1542:	0a 94       	dec	r0
    1544:	d2 f7       	brpl	.-12     	; 0x153a <__floatunsisf+0xc4>
    1546:	ed 82       	std	Y+5, r14	; 0x05
    1548:	fe 82       	std	Y+6, r15	; 0x06
    154a:	0f 83       	std	Y+7, r16	; 0x07
    154c:	18 87       	std	Y+8, r17	; 0x08
    154e:	ce 1a       	sub	r12, r30
    1550:	df 0a       	sbc	r13, r31
    1552:	dc 82       	std	Y+4, r13	; 0x04
    1554:	cb 82       	std	Y+3, r12	; 0x03
    1556:	ce 01       	movw	r24, r28
    1558:	01 96       	adiw	r24, 0x01	; 1
    155a:	0e 94 0d 0b 	call	0x161a	; 0x161a <__pack_f>
    155e:	28 96       	adiw	r28, 0x08	; 8
    1560:	e8 e0       	ldi	r30, 0x08	; 8
    1562:	0c 94 17 22 	jmp	0x442e	; 0x442e <__epilogue_restores__+0x14>

00001566 <__clzsi2>:
    1566:	af 92       	push	r10
    1568:	bf 92       	push	r11
    156a:	cf 92       	push	r12
    156c:	df 92       	push	r13
    156e:	ef 92       	push	r14
    1570:	ff 92       	push	r15
    1572:	0f 93       	push	r16
    1574:	1f 93       	push	r17
    1576:	7b 01       	movw	r14, r22
    1578:	8c 01       	movw	r16, r24
    157a:	80 e0       	ldi	r24, 0x00	; 0
    157c:	e8 16       	cp	r14, r24
    157e:	80 e0       	ldi	r24, 0x00	; 0
    1580:	f8 06       	cpc	r15, r24
    1582:	81 e0       	ldi	r24, 0x01	; 1
    1584:	08 07       	cpc	r16, r24
    1586:	80 e0       	ldi	r24, 0x00	; 0
    1588:	18 07       	cpc	r17, r24
    158a:	58 f4       	brcc	.+22     	; 0x15a2 <__clzsi2+0x3c>
    158c:	ef ef       	ldi	r30, 0xFF	; 255
    158e:	ee 16       	cp	r14, r30
    1590:	f1 04       	cpc	r15, r1
    1592:	01 05       	cpc	r16, r1
    1594:	11 05       	cpc	r17, r1
    1596:	09 f0       	breq	.+2      	; 0x159a <__clzsi2+0x34>
    1598:	90 f4       	brcc	.+36     	; 0x15be <__clzsi2+0x58>
    159a:	80 e0       	ldi	r24, 0x00	; 0
    159c:	90 e0       	ldi	r25, 0x00	; 0
    159e:	dc 01       	movw	r26, r24
    15a0:	17 c0       	rjmp	.+46     	; 0x15d0 <__clzsi2+0x6a>
    15a2:	f0 e0       	ldi	r31, 0x00	; 0
    15a4:	ef 16       	cp	r14, r31
    15a6:	f0 e0       	ldi	r31, 0x00	; 0
    15a8:	ff 06       	cpc	r15, r31
    15aa:	f0 e0       	ldi	r31, 0x00	; 0
    15ac:	0f 07       	cpc	r16, r31
    15ae:	f1 e0       	ldi	r31, 0x01	; 1
    15b0:	1f 07       	cpc	r17, r31
    15b2:	50 f4       	brcc	.+20     	; 0x15c8 <__clzsi2+0x62>
    15b4:	80 e1       	ldi	r24, 0x10	; 16
    15b6:	90 e0       	ldi	r25, 0x00	; 0
    15b8:	a0 e0       	ldi	r26, 0x00	; 0
    15ba:	b0 e0       	ldi	r27, 0x00	; 0
    15bc:	09 c0       	rjmp	.+18     	; 0x15d0 <__clzsi2+0x6a>
    15be:	88 e0       	ldi	r24, 0x08	; 8
    15c0:	90 e0       	ldi	r25, 0x00	; 0
    15c2:	a0 e0       	ldi	r26, 0x00	; 0
    15c4:	b0 e0       	ldi	r27, 0x00	; 0
    15c6:	04 c0       	rjmp	.+8      	; 0x15d0 <__clzsi2+0x6a>
    15c8:	88 e1       	ldi	r24, 0x18	; 24
    15ca:	90 e0       	ldi	r25, 0x00	; 0
    15cc:	a0 e0       	ldi	r26, 0x00	; 0
    15ce:	b0 e0       	ldi	r27, 0x00	; 0
    15d0:	20 e2       	ldi	r18, 0x20	; 32
    15d2:	30 e0       	ldi	r19, 0x00	; 0
    15d4:	40 e0       	ldi	r20, 0x00	; 0
    15d6:	50 e0       	ldi	r21, 0x00	; 0
    15d8:	28 1b       	sub	r18, r24
    15da:	39 0b       	sbc	r19, r25
    15dc:	4a 0b       	sbc	r20, r26
    15de:	5b 0b       	sbc	r21, r27
    15e0:	57 01       	movw	r10, r14
    15e2:	68 01       	movw	r12, r16
    15e4:	04 c0       	rjmp	.+8      	; 0x15ee <__clzsi2+0x88>
    15e6:	d6 94       	lsr	r13
    15e8:	c7 94       	ror	r12
    15ea:	b7 94       	ror	r11
    15ec:	a7 94       	ror	r10
    15ee:	8a 95       	dec	r24
    15f0:	d2 f7       	brpl	.-12     	; 0x15e6 <__clzsi2+0x80>
    15f2:	d6 01       	movw	r26, r12
    15f4:	c5 01       	movw	r24, r10
    15f6:	8f 56       	subi	r24, 0x6F	; 111
    15f8:	9e 4f       	sbci	r25, 0xFE	; 254
    15fa:	fc 01       	movw	r30, r24
    15fc:	80 81       	ld	r24, Z
    15fe:	28 1b       	sub	r18, r24
    1600:	31 09       	sbc	r19, r1
    1602:	41 09       	sbc	r20, r1
    1604:	51 09       	sbc	r21, r1
    1606:	c9 01       	movw	r24, r18
    1608:	1f 91       	pop	r17
    160a:	0f 91       	pop	r16
    160c:	ff 90       	pop	r15
    160e:	ef 90       	pop	r14
    1610:	df 90       	pop	r13
    1612:	cf 90       	pop	r12
    1614:	bf 90       	pop	r11
    1616:	af 90       	pop	r10
    1618:	08 95       	ret

0000161a <__pack_f>:
    161a:	ef 92       	push	r14
    161c:	ff 92       	push	r15
    161e:	0f 93       	push	r16
    1620:	1f 93       	push	r17
    1622:	cf 93       	push	r28
    1624:	df 93       	push	r29
    1626:	fc 01       	movw	r30, r24
    1628:	24 81       	ldd	r18, Z+4	; 0x04
    162a:	35 81       	ldd	r19, Z+5	; 0x05
    162c:	46 81       	ldd	r20, Z+6	; 0x06
    162e:	57 81       	ldd	r21, Z+7	; 0x07
    1630:	61 81       	ldd	r22, Z+1	; 0x01
    1632:	80 81       	ld	r24, Z
    1634:	82 30       	cpi	r24, 0x02	; 2
    1636:	20 f4       	brcc	.+8      	; 0x1640 <__pack_f+0x26>
    1638:	40 61       	ori	r20, 0x10	; 16
    163a:	ef ef       	ldi	r30, 0xFF	; 255
    163c:	f0 e0       	ldi	r31, 0x00	; 0
    163e:	a3 c0       	rjmp	.+326    	; 0x1786 <__pack_f+0x16c>
    1640:	84 30       	cpi	r24, 0x04	; 4
    1642:	09 f4       	brne	.+2      	; 0x1646 <__pack_f+0x2c>
    1644:	9b c0       	rjmp	.+310    	; 0x177c <__pack_f+0x162>
    1646:	82 30       	cpi	r24, 0x02	; 2
    1648:	09 f4       	brne	.+2      	; 0x164c <__pack_f+0x32>
    164a:	92 c0       	rjmp	.+292    	; 0x1770 <__pack_f+0x156>
    164c:	21 15       	cp	r18, r1
    164e:	31 05       	cpc	r19, r1
    1650:	41 05       	cpc	r20, r1
    1652:	51 05       	cpc	r21, r1
    1654:	09 f4       	brne	.+2      	; 0x1658 <__pack_f+0x3e>
    1656:	8f c0       	rjmp	.+286    	; 0x1776 <__pack_f+0x15c>
    1658:	02 80       	ldd	r0, Z+2	; 0x02
    165a:	f3 81       	ldd	r31, Z+3	; 0x03
    165c:	e0 2d       	mov	r30, r0
    165e:	8f ef       	ldi	r24, 0xFF	; 255
    1660:	e2 38       	cpi	r30, 0x82	; 130
    1662:	f8 07       	cpc	r31, r24
    1664:	0c f0       	brlt	.+2      	; 0x1668 <__pack_f+0x4e>
    1666:	5a c0       	rjmp	.+180    	; 0x171c <__pack_f+0x102>
    1668:	c2 e8       	ldi	r28, 0x82	; 130
    166a:	df ef       	ldi	r29, 0xFF	; 255
    166c:	ce 1b       	sub	r28, r30
    166e:	df 0b       	sbc	r29, r31
    1670:	ca 31       	cpi	r28, 0x1A	; 26
    1672:	d1 05       	cpc	r29, r1
    1674:	6c f5       	brge	.+90     	; 0x16d0 <__pack_f+0xb6>
    1676:	79 01       	movw	r14, r18
    1678:	8a 01       	movw	r16, r20
    167a:	0c 2e       	mov	r0, r28
    167c:	04 c0       	rjmp	.+8      	; 0x1686 <__pack_f+0x6c>
    167e:	16 95       	lsr	r17
    1680:	07 95       	ror	r16
    1682:	f7 94       	ror	r15
    1684:	e7 94       	ror	r14
    1686:	0a 94       	dec	r0
    1688:	d2 f7       	brpl	.-12     	; 0x167e <__pack_f+0x64>
    168a:	81 e0       	ldi	r24, 0x01	; 1
    168c:	90 e0       	ldi	r25, 0x00	; 0
    168e:	a0 e0       	ldi	r26, 0x00	; 0
    1690:	b0 e0       	ldi	r27, 0x00	; 0
    1692:	0c 2e       	mov	r0, r28
    1694:	04 c0       	rjmp	.+8      	; 0x169e <__pack_f+0x84>
    1696:	88 0f       	add	r24, r24
    1698:	99 1f       	adc	r25, r25
    169a:	aa 1f       	adc	r26, r26
    169c:	bb 1f       	adc	r27, r27
    169e:	0a 94       	dec	r0
    16a0:	d2 f7       	brpl	.-12     	; 0x1696 <__pack_f+0x7c>
    16a2:	01 97       	sbiw	r24, 0x01	; 1
    16a4:	a1 09       	sbc	r26, r1
    16a6:	b1 09       	sbc	r27, r1
    16a8:	82 23       	and	r24, r18
    16aa:	93 23       	and	r25, r19
    16ac:	a4 23       	and	r26, r20
    16ae:	b5 23       	and	r27, r21
    16b0:	21 e0       	ldi	r18, 0x01	; 1
    16b2:	30 e0       	ldi	r19, 0x00	; 0
    16b4:	40 e0       	ldi	r20, 0x00	; 0
    16b6:	50 e0       	ldi	r21, 0x00	; 0
    16b8:	00 97       	sbiw	r24, 0x00	; 0
    16ba:	a1 05       	cpc	r26, r1
    16bc:	b1 05       	cpc	r27, r1
    16be:	19 f4       	brne	.+6      	; 0x16c6 <__pack_f+0xac>
    16c0:	20 e0       	ldi	r18, 0x00	; 0
    16c2:	30 e0       	ldi	r19, 0x00	; 0
    16c4:	a9 01       	movw	r20, r18
    16c6:	2e 29       	or	r18, r14
    16c8:	3f 29       	or	r19, r15
    16ca:	40 2b       	or	r20, r16
    16cc:	51 2b       	or	r21, r17
    16ce:	03 c0       	rjmp	.+6      	; 0x16d6 <__pack_f+0xbc>
    16d0:	20 e0       	ldi	r18, 0x00	; 0
    16d2:	30 e0       	ldi	r19, 0x00	; 0
    16d4:	a9 01       	movw	r20, r18
    16d6:	da 01       	movw	r26, r20
    16d8:	c9 01       	movw	r24, r18
    16da:	8f 77       	andi	r24, 0x7F	; 127
    16dc:	90 70       	andi	r25, 0x00	; 0
    16de:	a0 70       	andi	r26, 0x00	; 0
    16e0:	b0 70       	andi	r27, 0x00	; 0
    16e2:	80 34       	cpi	r24, 0x40	; 64
    16e4:	91 05       	cpc	r25, r1
    16e6:	a1 05       	cpc	r26, r1
    16e8:	b1 05       	cpc	r27, r1
    16ea:	39 f4       	brne	.+14     	; 0x16fa <__pack_f+0xe0>
    16ec:	27 ff       	sbrs	r18, 7
    16ee:	09 c0       	rjmp	.+18     	; 0x1702 <__pack_f+0xe8>
    16f0:	20 5c       	subi	r18, 0xC0	; 192
    16f2:	3f 4f       	sbci	r19, 0xFF	; 255
    16f4:	4f 4f       	sbci	r20, 0xFF	; 255
    16f6:	5f 4f       	sbci	r21, 0xFF	; 255
    16f8:	04 c0       	rjmp	.+8      	; 0x1702 <__pack_f+0xe8>
    16fa:	21 5c       	subi	r18, 0xC1	; 193
    16fc:	3f 4f       	sbci	r19, 0xFF	; 255
    16fe:	4f 4f       	sbci	r20, 0xFF	; 255
    1700:	5f 4f       	sbci	r21, 0xFF	; 255
    1702:	e1 e0       	ldi	r30, 0x01	; 1
    1704:	f0 e0       	ldi	r31, 0x00	; 0
    1706:	20 30       	cpi	r18, 0x00	; 0
    1708:	80 e0       	ldi	r24, 0x00	; 0
    170a:	38 07       	cpc	r19, r24
    170c:	80 e0       	ldi	r24, 0x00	; 0
    170e:	48 07       	cpc	r20, r24
    1710:	80 e4       	ldi	r24, 0x40	; 64
    1712:	58 07       	cpc	r21, r24
    1714:	28 f5       	brcc	.+74     	; 0x1760 <__pack_f+0x146>
    1716:	e0 e0       	ldi	r30, 0x00	; 0
    1718:	f0 e0       	ldi	r31, 0x00	; 0
    171a:	22 c0       	rjmp	.+68     	; 0x1760 <__pack_f+0x146>
    171c:	e0 38       	cpi	r30, 0x80	; 128
    171e:	f1 05       	cpc	r31, r1
    1720:	6c f5       	brge	.+90     	; 0x177c <__pack_f+0x162>
    1722:	e1 58       	subi	r30, 0x81	; 129
    1724:	ff 4f       	sbci	r31, 0xFF	; 255
    1726:	da 01       	movw	r26, r20
    1728:	c9 01       	movw	r24, r18
    172a:	8f 77       	andi	r24, 0x7F	; 127
    172c:	90 70       	andi	r25, 0x00	; 0
    172e:	a0 70       	andi	r26, 0x00	; 0
    1730:	b0 70       	andi	r27, 0x00	; 0
    1732:	80 34       	cpi	r24, 0x40	; 64
    1734:	91 05       	cpc	r25, r1
    1736:	a1 05       	cpc	r26, r1
    1738:	b1 05       	cpc	r27, r1
    173a:	39 f4       	brne	.+14     	; 0x174a <__pack_f+0x130>
    173c:	27 ff       	sbrs	r18, 7
    173e:	09 c0       	rjmp	.+18     	; 0x1752 <__pack_f+0x138>
    1740:	20 5c       	subi	r18, 0xC0	; 192
    1742:	3f 4f       	sbci	r19, 0xFF	; 255
    1744:	4f 4f       	sbci	r20, 0xFF	; 255
    1746:	5f 4f       	sbci	r21, 0xFF	; 255
    1748:	04 c0       	rjmp	.+8      	; 0x1752 <__pack_f+0x138>
    174a:	21 5c       	subi	r18, 0xC1	; 193
    174c:	3f 4f       	sbci	r19, 0xFF	; 255
    174e:	4f 4f       	sbci	r20, 0xFF	; 255
    1750:	5f 4f       	sbci	r21, 0xFF	; 255
    1752:	57 ff       	sbrs	r21, 7
    1754:	05 c0       	rjmp	.+10     	; 0x1760 <__pack_f+0x146>
    1756:	56 95       	lsr	r21
    1758:	47 95       	ror	r20
    175a:	37 95       	ror	r19
    175c:	27 95       	ror	r18
    175e:	31 96       	adiw	r30, 0x01	; 1
    1760:	87 e0       	ldi	r24, 0x07	; 7
    1762:	56 95       	lsr	r21
    1764:	47 95       	ror	r20
    1766:	37 95       	ror	r19
    1768:	27 95       	ror	r18
    176a:	8a 95       	dec	r24
    176c:	d1 f7       	brne	.-12     	; 0x1762 <__pack_f+0x148>
    176e:	0b c0       	rjmp	.+22     	; 0x1786 <__pack_f+0x16c>
    1770:	e0 e0       	ldi	r30, 0x00	; 0
    1772:	f0 e0       	ldi	r31, 0x00	; 0
    1774:	05 c0       	rjmp	.+10     	; 0x1780 <__pack_f+0x166>
    1776:	e0 e0       	ldi	r30, 0x00	; 0
    1778:	f0 e0       	ldi	r31, 0x00	; 0
    177a:	05 c0       	rjmp	.+10     	; 0x1786 <__pack_f+0x16c>
    177c:	ef ef       	ldi	r30, 0xFF	; 255
    177e:	f0 e0       	ldi	r31, 0x00	; 0
    1780:	20 e0       	ldi	r18, 0x00	; 0
    1782:	30 e0       	ldi	r19, 0x00	; 0
    1784:	a9 01       	movw	r20, r18
    1786:	8e 2f       	mov	r24, r30
    1788:	87 95       	ror	r24
    178a:	88 27       	eor	r24, r24
    178c:	87 95       	ror	r24
    178e:	94 2f       	mov	r25, r20
    1790:	9f 77       	andi	r25, 0x7F	; 127
    1792:	67 95       	ror	r22
    1794:	66 27       	eor	r22, r22
    1796:	67 95       	ror	r22
    1798:	e6 95       	lsr	r30
    179a:	e2 2e       	mov	r14, r18
    179c:	a9 2f       	mov	r26, r25
    179e:	a8 2b       	or	r26, r24
    17a0:	fe 2f       	mov	r31, r30
    17a2:	f6 2b       	or	r31, r22
    17a4:	62 2f       	mov	r22, r18
    17a6:	73 2f       	mov	r23, r19
    17a8:	8a 2f       	mov	r24, r26
    17aa:	9f 2f       	mov	r25, r31
    17ac:	cd b7       	in	r28, 0x3d	; 61
    17ae:	de b7       	in	r29, 0x3e	; 62
    17b0:	e6 e0       	ldi	r30, 0x06	; 6
    17b2:	0c 94 19 22 	jmp	0x4432	; 0x4432 <__epilogue_restores__+0x18>

000017b6 <__unpack_f>:
    17b6:	dc 01       	movw	r26, r24
    17b8:	fb 01       	movw	r30, r22
    17ba:	2c 91       	ld	r18, X
    17bc:	11 96       	adiw	r26, 0x01	; 1
    17be:	3c 91       	ld	r19, X
    17c0:	11 97       	sbiw	r26, 0x01	; 1
    17c2:	12 96       	adiw	r26, 0x02	; 2
    17c4:	8c 91       	ld	r24, X
    17c6:	12 97       	sbiw	r26, 0x02	; 2
    17c8:	48 2f       	mov	r20, r24
    17ca:	4f 77       	andi	r20, 0x7F	; 127
    17cc:	50 e0       	ldi	r21, 0x00	; 0
    17ce:	98 2f       	mov	r25, r24
    17d0:	99 1f       	adc	r25, r25
    17d2:	99 27       	eor	r25, r25
    17d4:	99 1f       	adc	r25, r25
    17d6:	13 96       	adiw	r26, 0x03	; 3
    17d8:	6c 91       	ld	r22, X
    17da:	13 97       	sbiw	r26, 0x03	; 3
    17dc:	86 2f       	mov	r24, r22
    17de:	88 0f       	add	r24, r24
    17e0:	89 2b       	or	r24, r25
    17e2:	90 e0       	ldi	r25, 0x00	; 0
    17e4:	66 1f       	adc	r22, r22
    17e6:	66 27       	eor	r22, r22
    17e8:	66 1f       	adc	r22, r22
    17ea:	61 83       	std	Z+1, r22	; 0x01
    17ec:	00 97       	sbiw	r24, 0x00	; 0
    17ee:	39 f5       	brne	.+78     	; 0x183e <__unpack_f+0x88>
    17f0:	21 15       	cp	r18, r1
    17f2:	31 05       	cpc	r19, r1
    17f4:	41 05       	cpc	r20, r1
    17f6:	51 05       	cpc	r21, r1
    17f8:	11 f4       	brne	.+4      	; 0x17fe <__unpack_f+0x48>
    17fa:	82 e0       	ldi	r24, 0x02	; 2
    17fc:	29 c0       	rjmp	.+82     	; 0x1850 <__unpack_f+0x9a>
    17fe:	82 e8       	ldi	r24, 0x82	; 130
    1800:	9f ef       	ldi	r25, 0xFF	; 255
    1802:	93 83       	std	Z+3, r25	; 0x03
    1804:	82 83       	std	Z+2, r24	; 0x02
    1806:	67 e0       	ldi	r22, 0x07	; 7
    1808:	22 0f       	add	r18, r18
    180a:	33 1f       	adc	r19, r19
    180c:	44 1f       	adc	r20, r20
    180e:	55 1f       	adc	r21, r21
    1810:	6a 95       	dec	r22
    1812:	d1 f7       	brne	.-12     	; 0x1808 <__unpack_f+0x52>
    1814:	83 e0       	ldi	r24, 0x03	; 3
    1816:	80 83       	st	Z, r24
    1818:	09 c0       	rjmp	.+18     	; 0x182c <__unpack_f+0x76>
    181a:	22 0f       	add	r18, r18
    181c:	33 1f       	adc	r19, r19
    181e:	44 1f       	adc	r20, r20
    1820:	55 1f       	adc	r21, r21
    1822:	82 81       	ldd	r24, Z+2	; 0x02
    1824:	93 81       	ldd	r25, Z+3	; 0x03
    1826:	01 97       	sbiw	r24, 0x01	; 1
    1828:	93 83       	std	Z+3, r25	; 0x03
    182a:	82 83       	std	Z+2, r24	; 0x02
    182c:	20 30       	cpi	r18, 0x00	; 0
    182e:	80 e0       	ldi	r24, 0x00	; 0
    1830:	38 07       	cpc	r19, r24
    1832:	80 e0       	ldi	r24, 0x00	; 0
    1834:	48 07       	cpc	r20, r24
    1836:	80 e4       	ldi	r24, 0x40	; 64
    1838:	58 07       	cpc	r21, r24
    183a:	78 f3       	brcs	.-34     	; 0x181a <__unpack_f+0x64>
    183c:	20 c0       	rjmp	.+64     	; 0x187e <__unpack_f+0xc8>
    183e:	8f 3f       	cpi	r24, 0xFF	; 255
    1840:	91 05       	cpc	r25, r1
    1842:	79 f4       	brne	.+30     	; 0x1862 <__unpack_f+0xac>
    1844:	21 15       	cp	r18, r1
    1846:	31 05       	cpc	r19, r1
    1848:	41 05       	cpc	r20, r1
    184a:	51 05       	cpc	r21, r1
    184c:	19 f4       	brne	.+6      	; 0x1854 <__unpack_f+0x9e>
    184e:	84 e0       	ldi	r24, 0x04	; 4
    1850:	80 83       	st	Z, r24
    1852:	08 95       	ret
    1854:	44 ff       	sbrs	r20, 4
    1856:	03 c0       	rjmp	.+6      	; 0x185e <__unpack_f+0xa8>
    1858:	81 e0       	ldi	r24, 0x01	; 1
    185a:	80 83       	st	Z, r24
    185c:	10 c0       	rjmp	.+32     	; 0x187e <__unpack_f+0xc8>
    185e:	10 82       	st	Z, r1
    1860:	0e c0       	rjmp	.+28     	; 0x187e <__unpack_f+0xc8>
    1862:	8f 57       	subi	r24, 0x7F	; 127
    1864:	90 40       	sbci	r25, 0x00	; 0
    1866:	93 83       	std	Z+3, r25	; 0x03
    1868:	82 83       	std	Z+2, r24	; 0x02
    186a:	83 e0       	ldi	r24, 0x03	; 3
    186c:	80 83       	st	Z, r24
    186e:	87 e0       	ldi	r24, 0x07	; 7
    1870:	22 0f       	add	r18, r18
    1872:	33 1f       	adc	r19, r19
    1874:	44 1f       	adc	r20, r20
    1876:	55 1f       	adc	r21, r21
    1878:	8a 95       	dec	r24
    187a:	d1 f7       	brne	.-12     	; 0x1870 <__unpack_f+0xba>
    187c:	50 64       	ori	r21, 0x40	; 64
    187e:	24 83       	std	Z+4, r18	; 0x04
    1880:	35 83       	std	Z+5, r19	; 0x05
    1882:	46 83       	std	Z+6, r20	; 0x06
    1884:	57 83       	std	Z+7, r21	; 0x07
    1886:	08 95       	ret

00001888 <__fpcmp_parts_f>:
    1888:	fc 01       	movw	r30, r24
    188a:	db 01       	movw	r26, r22
    188c:	90 81       	ld	r25, Z
    188e:	92 30       	cpi	r25, 0x02	; 2
    1890:	08 f4       	brcc	.+2      	; 0x1894 <__fpcmp_parts_f+0xc>
    1892:	49 c0       	rjmp	.+146    	; 0x1926 <__fpcmp_parts_f+0x9e>
    1894:	8c 91       	ld	r24, X
    1896:	82 30       	cpi	r24, 0x02	; 2
    1898:	08 f4       	brcc	.+2      	; 0x189c <__fpcmp_parts_f+0x14>
    189a:	45 c0       	rjmp	.+138    	; 0x1926 <__fpcmp_parts_f+0x9e>
    189c:	94 30       	cpi	r25, 0x04	; 4
    189e:	51 f4       	brne	.+20     	; 0x18b4 <__fpcmp_parts_f+0x2c>
    18a0:	61 81       	ldd	r22, Z+1	; 0x01
    18a2:	84 30       	cpi	r24, 0x04	; 4
    18a4:	b1 f5       	brne	.+108    	; 0x1912 <__fpcmp_parts_f+0x8a>
    18a6:	11 96       	adiw	r26, 0x01	; 1
    18a8:	2c 91       	ld	r18, X
    18aa:	11 97       	sbiw	r26, 0x01	; 1
    18ac:	30 e0       	ldi	r19, 0x00	; 0
    18ae:	26 1b       	sub	r18, r22
    18b0:	31 09       	sbc	r19, r1
    18b2:	41 c0       	rjmp	.+130    	; 0x1936 <__fpcmp_parts_f+0xae>
    18b4:	84 30       	cpi	r24, 0x04	; 4
    18b6:	21 f0       	breq	.+8      	; 0x18c0 <__fpcmp_parts_f+0x38>
    18b8:	92 30       	cpi	r25, 0x02	; 2
    18ba:	41 f4       	brne	.+16     	; 0x18cc <__fpcmp_parts_f+0x44>
    18bc:	82 30       	cpi	r24, 0x02	; 2
    18be:	b1 f1       	breq	.+108    	; 0x192c <__fpcmp_parts_f+0xa4>
    18c0:	11 96       	adiw	r26, 0x01	; 1
    18c2:	8c 91       	ld	r24, X
    18c4:	11 97       	sbiw	r26, 0x01	; 1
    18c6:	88 23       	and	r24, r24
    18c8:	a1 f1       	breq	.+104    	; 0x1932 <__fpcmp_parts_f+0xaa>
    18ca:	2d c0       	rjmp	.+90     	; 0x1926 <__fpcmp_parts_f+0x9e>
    18cc:	61 81       	ldd	r22, Z+1	; 0x01
    18ce:	82 30       	cpi	r24, 0x02	; 2
    18d0:	01 f1       	breq	.+64     	; 0x1912 <__fpcmp_parts_f+0x8a>
    18d2:	11 96       	adiw	r26, 0x01	; 1
    18d4:	8c 91       	ld	r24, X
    18d6:	11 97       	sbiw	r26, 0x01	; 1
    18d8:	68 17       	cp	r22, r24
    18da:	d9 f4       	brne	.+54     	; 0x1912 <__fpcmp_parts_f+0x8a>
    18dc:	22 81       	ldd	r18, Z+2	; 0x02
    18de:	33 81       	ldd	r19, Z+3	; 0x03
    18e0:	12 96       	adiw	r26, 0x02	; 2
    18e2:	8d 91       	ld	r24, X+
    18e4:	9c 91       	ld	r25, X
    18e6:	13 97       	sbiw	r26, 0x03	; 3
    18e8:	82 17       	cp	r24, r18
    18ea:	93 07       	cpc	r25, r19
    18ec:	94 f0       	brlt	.+36     	; 0x1912 <__fpcmp_parts_f+0x8a>
    18ee:	28 17       	cp	r18, r24
    18f0:	39 07       	cpc	r19, r25
    18f2:	bc f0       	brlt	.+46     	; 0x1922 <__fpcmp_parts_f+0x9a>
    18f4:	24 81       	ldd	r18, Z+4	; 0x04
    18f6:	35 81       	ldd	r19, Z+5	; 0x05
    18f8:	46 81       	ldd	r20, Z+6	; 0x06
    18fa:	57 81       	ldd	r21, Z+7	; 0x07
    18fc:	14 96       	adiw	r26, 0x04	; 4
    18fe:	8d 91       	ld	r24, X+
    1900:	9d 91       	ld	r25, X+
    1902:	0d 90       	ld	r0, X+
    1904:	bc 91       	ld	r27, X
    1906:	a0 2d       	mov	r26, r0
    1908:	82 17       	cp	r24, r18
    190a:	93 07       	cpc	r25, r19
    190c:	a4 07       	cpc	r26, r20
    190e:	b5 07       	cpc	r27, r21
    1910:	18 f4       	brcc	.+6      	; 0x1918 <__fpcmp_parts_f+0x90>
    1912:	66 23       	and	r22, r22
    1914:	41 f0       	breq	.+16     	; 0x1926 <__fpcmp_parts_f+0x9e>
    1916:	0d c0       	rjmp	.+26     	; 0x1932 <__fpcmp_parts_f+0xaa>
    1918:	28 17       	cp	r18, r24
    191a:	39 07       	cpc	r19, r25
    191c:	4a 07       	cpc	r20, r26
    191e:	5b 07       	cpc	r21, r27
    1920:	28 f4       	brcc	.+10     	; 0x192c <__fpcmp_parts_f+0xa4>
    1922:	66 23       	and	r22, r22
    1924:	31 f0       	breq	.+12     	; 0x1932 <__fpcmp_parts_f+0xaa>
    1926:	21 e0       	ldi	r18, 0x01	; 1
    1928:	30 e0       	ldi	r19, 0x00	; 0
    192a:	05 c0       	rjmp	.+10     	; 0x1936 <__fpcmp_parts_f+0xae>
    192c:	20 e0       	ldi	r18, 0x00	; 0
    192e:	30 e0       	ldi	r19, 0x00	; 0
    1930:	02 c0       	rjmp	.+4      	; 0x1936 <__fpcmp_parts_f+0xae>
    1932:	2f ef       	ldi	r18, 0xFF	; 255
    1934:	3f ef       	ldi	r19, 0xFF	; 255
    1936:	c9 01       	movw	r24, r18
    1938:	08 95       	ret

0000193a <_ZN15OrangutanAnalog7setModeEh>:
    193a:	88 23       	and	r24, r24
    193c:	21 f4       	brne	.+8      	; 0x1946 <_ZN15OrangutanAnalog7setModeEh+0xc>
    193e:	80 91 7c 00 	lds	r24, 0x007C
    1942:	8f 7d       	andi	r24, 0xDF	; 223
    1944:	03 c0       	rjmp	.+6      	; 0x194c <_ZN15OrangutanAnalog7setModeEh+0x12>
    1946:	80 91 7c 00 	lds	r24, 0x007C
    194a:	80 62       	ori	r24, 0x20	; 32
    194c:	80 93 7c 00 	sts	0x007C, r24
    1950:	08 95       	ret

00001952 <_ZN15OrangutanAnalog7getModeEv>:
    1952:	80 91 7c 00 	lds	r24, 0x007C
    1956:	90 e0       	ldi	r25, 0x00	; 0
    1958:	25 e0       	ldi	r18, 0x05	; 5
    195a:	95 95       	asr	r25
    195c:	87 95       	ror	r24
    195e:	2a 95       	dec	r18
    1960:	e1 f7       	brne	.-8      	; 0x195a <_ZN15OrangutanAnalog7getModeEv+0x8>
    1962:	81 70       	andi	r24, 0x01	; 1
    1964:	08 95       	ret

00001966 <_ZN15OrangutanAnalog12isConvertingEv>:
    1966:	80 91 7a 00 	lds	r24, 0x007A
    196a:	90 e0       	ldi	r25, 0x00	; 0
    196c:	36 e0       	ldi	r19, 0x06	; 6
    196e:	95 95       	asr	r25
    1970:	87 95       	ror	r24
    1972:	3a 95       	dec	r19
    1974:	e1 f7       	brne	.-8      	; 0x196e <_ZN15OrangutanAnalog12isConvertingEv+0x8>
    1976:	81 70       	andi	r24, 0x01	; 1
    1978:	08 95       	ret

0000197a <set_millivolt_calibration>:
    197a:	90 93 5f 01 	sts	0x015F, r25
    197e:	80 93 5e 01 	sts	0x015E, r24
    1982:	08 95       	ret

00001984 <_ZN15OrangutanAnalogC1Ev>:
    1984:	08 95       	ret

00001986 <_ZN15OrangutanAnalog16conversionResultEv>:
    1986:	0e 94 a9 0c 	call	0x1952	; 0x1952 <_ZN15OrangutanAnalog7getModeEv>
    198a:	88 23       	and	r24, r24
    198c:	21 f0       	breq	.+8      	; 0x1996 <_ZN15OrangutanAnalog16conversionResultEv+0x10>
    198e:	20 91 79 00 	lds	r18, 0x0079
    1992:	30 e0       	ldi	r19, 0x00	; 0
    1994:	04 c0       	rjmp	.+8      	; 0x199e <_ZN15OrangutanAnalog16conversionResultEv+0x18>
    1996:	20 91 78 00 	lds	r18, 0x0078
    199a:	30 91 79 00 	lds	r19, 0x0079
    199e:	c9 01       	movw	r24, r18
    19a0:	08 95       	ret

000019a2 <analog_conversion_result>:
    19a2:	0e 94 c3 0c 	call	0x1986	; 0x1986 <_ZN15OrangutanAnalog16conversionResultEv>
    19a6:	08 95       	ret

000019a8 <_ZN15OrangutanAnalog15startConversionEhh>:
    19a8:	80 32       	cpi	r24, 0x20	; 32
    19aa:	b0 f4       	brcc	.+44     	; 0x19d8 <_ZN15OrangutanAnalog15startConversionEhh+0x30>
    19ac:	97 e8       	ldi	r25, 0x87	; 135
    19ae:	90 93 7a 00 	sts	0x007A, r25
    19b2:	90 91 7c 00 	lds	r25, 0x007C
    19b6:	29 2f       	mov	r18, r25
    19b8:	20 64       	ori	r18, 0x40	; 64
    19ba:	66 23       	and	r22, r22
    19bc:	11 f0       	breq	.+4      	; 0x19c2 <_ZN15OrangutanAnalog15startConversionEhh+0x1a>
    19be:	90 6c       	ori	r25, 0xC0	; 192
    19c0:	02 c0       	rjmp	.+4      	; 0x19c6 <_ZN15OrangutanAnalog15startConversionEhh+0x1e>
    19c2:	92 2f       	mov	r25, r18
    19c4:	9f 77       	andi	r25, 0x7F	; 127
    19c6:	90 7e       	andi	r25, 0xE0	; 224
    19c8:	98 2b       	or	r25, r24
    19ca:	90 93 7c 00 	sts	0x007C, r25
    19ce:	80 91 7a 00 	lds	r24, 0x007A
    19d2:	80 64       	ori	r24, 0x40	; 64
    19d4:	80 93 7a 00 	sts	0x007A, r24
    19d8:	08 95       	ret

000019da <start_analog_conversion>:
    19da:	60 e0       	ldi	r22, 0x00	; 0
    19dc:	0e 94 d4 0c 	call	0x19a8	; 0x19a8 <_ZN15OrangutanAnalog15startConversionEhh>
    19e0:	08 95       	ret

000019e2 <_ZN15OrangutanAnalog4readEh>:
    19e2:	60 e0       	ldi	r22, 0x00	; 0
    19e4:	0e 94 d4 0c 	call	0x19a8	; 0x19a8 <_ZN15OrangutanAnalog15startConversionEhh>
    19e8:	0e 94 b3 0c 	call	0x1966	; 0x1966 <_ZN15OrangutanAnalog12isConvertingEv>
    19ec:	88 23       	and	r24, r24
    19ee:	e1 f7       	brne	.-8      	; 0x19e8 <_ZN15OrangutanAnalog4readEh+0x6>
    19f0:	0e 94 c3 0c 	call	0x1986	; 0x1986 <_ZN15OrangutanAnalog16conversionResultEv>
    19f4:	08 95       	ret

000019f6 <analog_read>:
    19f6:	0e 94 f1 0c 	call	0x19e2	; 0x19e2 <_ZN15OrangutanAnalog4readEh>
    19fa:	08 95       	ret

000019fc <_ZN15OrangutanAnalog11readAverageEhj>:
    19fc:	a0 e0       	ldi	r26, 0x00	; 0
    19fe:	b0 e0       	ldi	r27, 0x00	; 0
    1a00:	e4 e0       	ldi	r30, 0x04	; 4
    1a02:	fd e0       	ldi	r31, 0x0D	; 13
    1a04:	0c 94 fb 21 	jmp	0x43f6	; 0x43f6 <__prologue_saves__+0x14>
    1a08:	6b 01       	movw	r12, r22
    1a0a:	60 e0       	ldi	r22, 0x00	; 0
    1a0c:	0e 94 d4 0c 	call	0x19a8	; 0x19a8 <_ZN15OrangutanAnalog15startConversionEhh>
    1a10:	0e 94 b3 0c 	call	0x1966	; 0x1966 <_ZN15OrangutanAnalog12isConvertingEv>
    1a14:	88 23       	and	r24, r24
    1a16:	e1 f7       	brne	.-8      	; 0x1a10 <_ZN15OrangutanAnalog11readAverageEhj+0x14>
    1a18:	e6 01       	movw	r28, r12
    1a1a:	ee 24       	eor	r14, r14
    1a1c:	ff 24       	eor	r15, r15
    1a1e:	87 01       	movw	r16, r14
    1a20:	80 91 7a 00 	lds	r24, 0x007A
    1a24:	80 64       	ori	r24, 0x40	; 64
    1a26:	80 93 7a 00 	sts	0x007A, r24
    1a2a:	0e 94 b3 0c 	call	0x1966	; 0x1966 <_ZN15OrangutanAnalog12isConvertingEv>
    1a2e:	88 23       	and	r24, r24
    1a30:	e1 f7       	brne	.-8      	; 0x1a2a <_ZN15OrangutanAnalog11readAverageEhj+0x2e>
    1a32:	0e 94 c3 0c 	call	0x1986	; 0x1986 <_ZN15OrangutanAnalog16conversionResultEv>
    1a36:	a0 e0       	ldi	r26, 0x00	; 0
    1a38:	b0 e0       	ldi	r27, 0x00	; 0
    1a3a:	e8 0e       	add	r14, r24
    1a3c:	f9 1e       	adc	r15, r25
    1a3e:	0a 1f       	adc	r16, r26
    1a40:	1b 1f       	adc	r17, r27
    1a42:	21 97       	sbiw	r28, 0x01	; 1
    1a44:	69 f7       	brne	.-38     	; 0x1a20 <_ZN15OrangutanAnalog11readAverageEhj+0x24>
    1a46:	c6 01       	movw	r24, r12
    1a48:	96 95       	lsr	r25
    1a4a:	87 95       	ror	r24
    1a4c:	20 e4       	ldi	r18, 0x40	; 64
    1a4e:	c2 16       	cp	r12, r18
    1a50:	d1 04       	cpc	r13, r1
    1a52:	40 f4       	brcc	.+16     	; 0x1a64 <_ZN15OrangutanAnalog11readAverageEhj+0x68>
    1a54:	8e 0d       	add	r24, r14
    1a56:	9f 1d       	adc	r25, r15
    1a58:	6c 2d       	mov	r22, r12
    1a5a:	70 e0       	ldi	r23, 0x00	; 0
    1a5c:	0e 94 8d 21 	call	0x431a	; 0x431a <__udivmodhi4>
    1a60:	cb 01       	movw	r24, r22
    1a62:	0d c0       	rjmp	.+26     	; 0x1a7e <_ZN15OrangutanAnalog11readAverageEhj+0x82>
    1a64:	bc 01       	movw	r22, r24
    1a66:	80 e0       	ldi	r24, 0x00	; 0
    1a68:	90 e0       	ldi	r25, 0x00	; 0
    1a6a:	6e 0d       	add	r22, r14
    1a6c:	7f 1d       	adc	r23, r15
    1a6e:	80 1f       	adc	r24, r16
    1a70:	91 1f       	adc	r25, r17
    1a72:	96 01       	movw	r18, r12
    1a74:	40 e0       	ldi	r20, 0x00	; 0
    1a76:	50 e0       	ldi	r21, 0x00	; 0
    1a78:	0e 94 b4 21 	call	0x4368	; 0x4368 <__udivmodsi4>
    1a7c:	c9 01       	movw	r24, r18
    1a7e:	cd b7       	in	r28, 0x3d	; 61
    1a80:	de b7       	in	r29, 0x3e	; 62
    1a82:	e8 e0       	ldi	r30, 0x08	; 8
    1a84:	0c 94 17 22 	jmp	0x442e	; 0x442e <__epilogue_restores__+0x14>

00001a88 <_ZN15OrangutanAnalog11readTrimpotEv>:
    1a88:	87 e0       	ldi	r24, 0x07	; 7
    1a8a:	64 e1       	ldi	r22, 0x14	; 20
    1a8c:	70 e0       	ldi	r23, 0x00	; 0
    1a8e:	0e 94 fe 0c 	call	0x19fc	; 0x19fc <_ZN15OrangutanAnalog11readAverageEhj>
    1a92:	08 95       	ret

00001a94 <read_trimpot>:
    1a94:	0e 94 44 0d 	call	0x1a88	; 0x1a88 <_ZN15OrangutanAnalog11readTrimpotEv>
    1a98:	08 95       	ret

00001a9a <analog_read_average>:
    1a9a:	0e 94 fe 0c 	call	0x19fc	; 0x19fc <_ZN15OrangutanAnalog11readAverageEhj>
    1a9e:	08 95       	ret

00001aa0 <_ZN15OrangutanAnalog23setMillivoltCalibrationEj>:
    1aa0:	90 93 5f 01 	sts	0x015F, r25
    1aa4:	80 93 5e 01 	sts	0x015E, r24
    1aa8:	08 95       	ret

00001aaa <_ZN15OrangutanAnalog17readVCCMillivoltsEv>:
    1aaa:	1f 93       	push	r17
    1aac:	cf 93       	push	r28
    1aae:	df 93       	push	r29
    1ab0:	0e 94 a9 0c 	call	0x1952	; 0x1952 <_ZN15OrangutanAnalog7getModeEv>
    1ab4:	18 2f       	mov	r17, r24
    1ab6:	80 e0       	ldi	r24, 0x00	; 0
    1ab8:	0e 94 9d 0c 	call	0x193a	; 0x193a <_ZN15OrangutanAnalog7setModeEh>
    1abc:	8e e1       	ldi	r24, 0x1E	; 30
    1abe:	64 e1       	ldi	r22, 0x14	; 20
    1ac0:	70 e0       	ldi	r23, 0x00	; 0
    1ac2:	0e 94 fe 0c 	call	0x19fc	; 0x19fc <_ZN15OrangutanAnalog11readAverageEhj>
    1ac6:	8e e1       	ldi	r24, 0x1E	; 30
    1ac8:	64 e1       	ldi	r22, 0x14	; 20
    1aca:	70 e0       	ldi	r23, 0x00	; 0
    1acc:	0e 94 fe 0c 	call	0x19fc	; 0x19fc <_ZN15OrangutanAnalog11readAverageEhj>
    1ad0:	ec 01       	movw	r28, r24
    1ad2:	81 2f       	mov	r24, r17
    1ad4:	0e 94 9d 0c 	call	0x193a	; 0x193a <_ZN15OrangutanAnalog7setModeEh>
    1ad8:	be 01       	movw	r22, r28
    1ada:	76 95       	lsr	r23
    1adc:	67 95       	ror	r22
    1ade:	80 e0       	ldi	r24, 0x00	; 0
    1ae0:	90 e0       	ldi	r25, 0x00	; 0
    1ae2:	6c 54       	subi	r22, 0x4C	; 76
    1ae4:	74 4d       	sbci	r23, 0xD4	; 212
    1ae6:	8e 4e       	sbci	r24, 0xEE	; 238
    1ae8:	9f 4f       	sbci	r25, 0xFF	; 255
    1aea:	9e 01       	movw	r18, r28
    1aec:	40 e0       	ldi	r20, 0x00	; 0
    1aee:	50 e0       	ldi	r21, 0x00	; 0
    1af0:	0e 94 b4 21 	call	0x4368	; 0x4368 <__udivmodsi4>
    1af4:	c9 01       	movw	r24, r18
    1af6:	df 91       	pop	r29
    1af8:	cf 91       	pop	r28
    1afa:	1f 91       	pop	r17
    1afc:	08 95       	ret

00001afe <read_vcc_millivolts>:
    1afe:	0e 94 55 0d 	call	0x1aaa	; 0x1aaa <_ZN15OrangutanAnalog17readVCCMillivoltsEv>
    1b02:	08 95       	ret

00001b04 <_ZN15OrangutanAnalog12toMillivoltsEj>:
    1b04:	a3 e0       	ldi	r26, 0x03	; 3
    1b06:	b0 e0       	ldi	r27, 0x00	; 0
    1b08:	e8 e8       	ldi	r30, 0x88	; 136
    1b0a:	fd e0       	ldi	r31, 0x0D	; 13
    1b0c:	0c 94 00 22 	jmp	0x4400	; 0x4400 <__prologue_saves__+0x1e>
    1b10:	bc 01       	movw	r22, r24
    1b12:	80 e0       	ldi	r24, 0x00	; 0
    1b14:	90 e0       	ldi	r25, 0x00	; 0
    1b16:	20 91 5e 01 	lds	r18, 0x015E
    1b1a:	30 91 5f 01 	lds	r19, 0x015F
    1b1e:	40 e0       	ldi	r20, 0x00	; 0
    1b20:	50 e0       	ldi	r21, 0x00	; 0
    1b22:	0e 94 62 21 	call	0x42c4	; 0x42c4 <__mulsi3>
    1b26:	18 2f       	mov	r17, r24
    1b28:	69 83       	std	Y+1, r22	; 0x01
    1b2a:	7a 83       	std	Y+2, r23	; 0x02
    1b2c:	9b 83       	std	Y+3, r25	; 0x03
    1b2e:	0e 94 a9 0c 	call	0x1952	; 0x1952 <_ZN15OrangutanAnalog7getModeEv>
    1b32:	69 81       	ldd	r22, Y+1	; 0x01
    1b34:	7a 81       	ldd	r23, Y+2	; 0x02
    1b36:	9b 81       	ldd	r25, Y+3	; 0x03
    1b38:	88 23       	and	r24, r24
    1b3a:	71 f0       	breq	.+28     	; 0x1b58 <_ZN15OrangutanAnalog12toMillivoltsEj+0x54>
    1b3c:	9b 01       	movw	r18, r22
    1b3e:	41 2f       	mov	r20, r17
    1b40:	59 2f       	mov	r21, r25
    1b42:	ca 01       	movw	r24, r20
    1b44:	b9 01       	movw	r22, r18
    1b46:	61 58       	subi	r22, 0x81	; 129
    1b48:	7f 4f       	sbci	r23, 0xFF	; 255
    1b4a:	8f 4f       	sbci	r24, 0xFF	; 255
    1b4c:	9f 4f       	sbci	r25, 0xFF	; 255
    1b4e:	2f ef       	ldi	r18, 0xFF	; 255
    1b50:	30 e0       	ldi	r19, 0x00	; 0
    1b52:	40 e0       	ldi	r20, 0x00	; 0
    1b54:	50 e0       	ldi	r21, 0x00	; 0
    1b56:	0d c0       	rjmp	.+26     	; 0x1b72 <_ZN15OrangutanAnalog12toMillivoltsEj+0x6e>
    1b58:	9b 01       	movw	r18, r22
    1b5a:	41 2f       	mov	r20, r17
    1b5c:	59 2f       	mov	r21, r25
    1b5e:	ca 01       	movw	r24, r20
    1b60:	b9 01       	movw	r22, r18
    1b62:	61 50       	subi	r22, 0x01	; 1
    1b64:	7e 4f       	sbci	r23, 0xFE	; 254
    1b66:	8f 4f       	sbci	r24, 0xFF	; 255
    1b68:	9f 4f       	sbci	r25, 0xFF	; 255
    1b6a:	2f ef       	ldi	r18, 0xFF	; 255
    1b6c:	33 e0       	ldi	r19, 0x03	; 3
    1b6e:	40 e0       	ldi	r20, 0x00	; 0
    1b70:	50 e0       	ldi	r21, 0x00	; 0
    1b72:	0e 94 b4 21 	call	0x4368	; 0x4368 <__udivmodsi4>
    1b76:	c9 01       	movw	r24, r18
    1b78:	23 96       	adiw	r28, 0x03	; 3
    1b7a:	e3 e0       	ldi	r30, 0x03	; 3
    1b7c:	0c 94 1c 22 	jmp	0x4438	; 0x4438 <__epilogue_restores__+0x1e>

00001b80 <_ZN15OrangutanAnalog21readAverageMillivoltsEhj>:
    1b80:	0e 94 fe 0c 	call	0x19fc	; 0x19fc <_ZN15OrangutanAnalog11readAverageEhj>
    1b84:	0e 94 82 0d 	call	0x1b04	; 0x1b04 <_ZN15OrangutanAnalog12toMillivoltsEj>
    1b88:	08 95       	ret

00001b8a <analog_read_average_millivolts>:
    1b8a:	0e 94 c0 0d 	call	0x1b80	; 0x1b80 <_ZN15OrangutanAnalog21readAverageMillivoltsEhj>
    1b8e:	08 95       	ret

00001b90 <_ZN15OrangutanAnalog26conversionResultMillivoltsEv>:
    1b90:	0e 94 a9 0c 	call	0x1952	; 0x1952 <_ZN15OrangutanAnalog7getModeEv>
    1b94:	88 23       	and	r24, r24
    1b96:	31 f0       	breq	.+12     	; 0x1ba4 <_ZN15OrangutanAnalog26conversionResultMillivoltsEv+0x14>
    1b98:	80 91 79 00 	lds	r24, 0x0079
    1b9c:	90 e0       	ldi	r25, 0x00	; 0
    1b9e:	0e 94 82 0d 	call	0x1b04	; 0x1b04 <_ZN15OrangutanAnalog12toMillivoltsEj>
    1ba2:	08 95       	ret
    1ba4:	80 91 78 00 	lds	r24, 0x0078
    1ba8:	90 91 79 00 	lds	r25, 0x0079
    1bac:	0e 94 82 0d 	call	0x1b04	; 0x1b04 <_ZN15OrangutanAnalog12toMillivoltsEj>
    1bb0:	08 95       	ret

00001bb2 <_ZN15OrangutanAnalog14readMillivoltsEh>:
    1bb2:	60 e0       	ldi	r22, 0x00	; 0
    1bb4:	0e 94 d4 0c 	call	0x19a8	; 0x19a8 <_ZN15OrangutanAnalog15startConversionEhh>
    1bb8:	0e 94 b3 0c 	call	0x1966	; 0x1966 <_ZN15OrangutanAnalog12isConvertingEv>
    1bbc:	88 23       	and	r24, r24
    1bbe:	e1 f7       	brne	.-8      	; 0x1bb8 <_ZN15OrangutanAnalog14readMillivoltsEh+0x6>
    1bc0:	0e 94 c8 0d 	call	0x1b90	; 0x1b90 <_ZN15OrangutanAnalog26conversionResultMillivoltsEv>
    1bc4:	08 95       	ret

00001bc6 <analog_read_millivolts>:
    1bc6:	0e 94 d9 0d 	call	0x1bb2	; 0x1bb2 <_ZN15OrangutanAnalog14readMillivoltsEh>
    1bca:	08 95       	ret

00001bcc <analog_conversion_result_millivolts>:
    1bcc:	0e 94 c8 0d 	call	0x1b90	; 0x1b90 <_ZN15OrangutanAnalog26conversionResultMillivoltsEv>
    1bd0:	08 95       	ret

00001bd2 <_ZN15OrangutanAnalog21readTrimpotMillivoltsEv>:
    1bd2:	0e 94 44 0d 	call	0x1a88	; 0x1a88 <_ZN15OrangutanAnalog11readTrimpotEv>
    1bd6:	0e 94 82 0d 	call	0x1b04	; 0x1b04 <_ZN15OrangutanAnalog12toMillivoltsEj>
    1bda:	08 95       	ret

00001bdc <read_trimpot_millivolts>:
    1bdc:	0e 94 e9 0d 	call	0x1bd2	; 0x1bd2 <_ZN15OrangutanAnalog21readTrimpotMillivoltsEv>
    1be0:	08 95       	ret

00001be2 <to_millivolts>:
    1be2:	0e 94 82 0d 	call	0x1b04	; 0x1b04 <_ZN15OrangutanAnalog12toMillivoltsEj>
    1be6:	08 95       	ret

00001be8 <_ZN15OrangutanAnalog16readTemperatureFEv>:
    1be8:	1f 93       	push	r17
    1bea:	cf 93       	push	r28
    1bec:	df 93       	push	r29
    1bee:	0e 94 a9 0c 	call	0x1952	; 0x1952 <_ZN15OrangutanAnalog7getModeEv>
    1bf2:	18 2f       	mov	r17, r24
    1bf4:	80 e0       	ldi	r24, 0x00	; 0
    1bf6:	0e 94 9d 0c 	call	0x193a	; 0x193a <_ZN15OrangutanAnalog7setModeEh>
    1bfa:	86 e0       	ldi	r24, 0x06	; 6
    1bfc:	64 e1       	ldi	r22, 0x14	; 20
    1bfe:	70 e0       	ldi	r23, 0x00	; 0
    1c00:	0e 94 c0 0d 	call	0x1b80	; 0x1b80 <_ZN15OrangutanAnalog21readAverageMillivoltsEhj>
    1c04:	ec 01       	movw	r28, r24
    1c06:	81 2f       	mov	r24, r17
    1c08:	0e 94 9d 0c 	call	0x193a	; 0x193a <_ZN15OrangutanAnalog7setModeEh>
    1c0c:	ce 01       	movw	r24, r28
    1c0e:	88 0f       	add	r24, r24
    1c10:	99 1f       	adc	r25, r25
    1c12:	8c 0f       	add	r24, r28
    1c14:	9d 1f       	adc	r25, r29
    1c16:	88 0f       	add	r24, r24
    1c18:	99 1f       	adc	r25, r25
    1c1a:	88 0f       	add	r24, r24
    1c1c:	99 1f       	adc	r25, r25
    1c1e:	8a 57       	subi	r24, 0x7A	; 122
    1c20:	92 40       	sbci	r25, 0x02	; 2
    1c22:	6d e0       	ldi	r22, 0x0D	; 13
    1c24:	70 e0       	ldi	r23, 0x00	; 0
    1c26:	0e 94 a1 21 	call	0x4342	; 0x4342 <__divmodhi4>
    1c2a:	cb 01       	movw	r24, r22
    1c2c:	df 91       	pop	r29
    1c2e:	cf 91       	pop	r28
    1c30:	1f 91       	pop	r17
    1c32:	08 95       	ret

00001c34 <read_temperature_f>:
    1c34:	0e 94 f4 0d 	call	0x1be8	; 0x1be8 <_ZN15OrangutanAnalog16readTemperatureFEv>
    1c38:	08 95       	ret

00001c3a <_ZN15OrangutanAnalog16readTemperatureCEv>:
    1c3a:	1f 93       	push	r17
    1c3c:	cf 93       	push	r28
    1c3e:	df 93       	push	r29
    1c40:	0e 94 a9 0c 	call	0x1952	; 0x1952 <_ZN15OrangutanAnalog7getModeEv>
    1c44:	18 2f       	mov	r17, r24
    1c46:	80 e0       	ldi	r24, 0x00	; 0
    1c48:	0e 94 9d 0c 	call	0x193a	; 0x193a <_ZN15OrangutanAnalog7setModeEh>
    1c4c:	86 e0       	ldi	r24, 0x06	; 6
    1c4e:	64 e1       	ldi	r22, 0x14	; 20
    1c50:	70 e0       	ldi	r23, 0x00	; 0
    1c52:	0e 94 c0 0d 	call	0x1b80	; 0x1b80 <_ZN15OrangutanAnalog21readAverageMillivoltsEhj>
    1c56:	ec 01       	movw	r28, r24
    1c58:	81 2f       	mov	r24, r17
    1c5a:	0e 94 9d 0c 	call	0x193a	; 0x193a <_ZN15OrangutanAnalog7setModeEh>
    1c5e:	24 e1       	ldi	r18, 0x14	; 20
    1c60:	30 e0       	ldi	r19, 0x00	; 0
    1c62:	c2 9f       	mul	r28, r18
    1c64:	c0 01       	movw	r24, r0
    1c66:	c3 9f       	mul	r28, r19
    1c68:	90 0d       	add	r25, r0
    1c6a:	d2 9f       	mul	r29, r18
    1c6c:	90 0d       	add	r25, r0
    1c6e:	11 24       	eor	r1, r1
    1c70:	8e 52       	subi	r24, 0x2E	; 46
    1c72:	9f 41       	sbci	r25, 0x1F	; 31
    1c74:	67 e2       	ldi	r22, 0x27	; 39
    1c76:	70 e0       	ldi	r23, 0x00	; 0
    1c78:	0e 94 a1 21 	call	0x4342	; 0x4342 <__divmodhi4>
    1c7c:	cb 01       	movw	r24, r22
    1c7e:	df 91       	pop	r29
    1c80:	cf 91       	pop	r28
    1c82:	1f 91       	pop	r17
    1c84:	08 95       	ret

00001c86 <read_temperature_c>:
    1c86:	0e 94 1d 0e 	call	0x1c3a	; 0x1c3a <_ZN15OrangutanAnalog16readTemperatureCEv>
    1c8a:	08 95       	ret

00001c8c <_ZN15OrangutanAnalog25readBatteryMillivolts_3piEv>:
    1c8c:	1f 93       	push	r17
    1c8e:	cf 93       	push	r28
    1c90:	df 93       	push	r29
    1c92:	0e 94 a9 0c 	call	0x1952	; 0x1952 <_ZN15OrangutanAnalog7getModeEv>
    1c96:	18 2f       	mov	r17, r24
    1c98:	80 e0       	ldi	r24, 0x00	; 0
    1c9a:	0e 94 9d 0c 	call	0x193a	; 0x193a <_ZN15OrangutanAnalog7setModeEh>
    1c9e:	86 e0       	ldi	r24, 0x06	; 6
    1ca0:	6a e0       	ldi	r22, 0x0A	; 10
    1ca2:	70 e0       	ldi	r23, 0x00	; 0
    1ca4:	0e 94 c0 0d 	call	0x1b80	; 0x1b80 <_ZN15OrangutanAnalog21readAverageMillivoltsEhj>
    1ca8:	ec 01       	movw	r28, r24
    1caa:	81 2f       	mov	r24, r17
    1cac:	0e 94 9d 0c 	call	0x193a	; 0x193a <_ZN15OrangutanAnalog7setModeEh>
    1cb0:	9e 01       	movw	r18, r28
    1cb2:	22 0f       	add	r18, r18
    1cb4:	33 1f       	adc	r19, r19
    1cb6:	2c 0f       	add	r18, r28
    1cb8:	3d 1f       	adc	r19, r29
    1cba:	2f 5f       	subi	r18, 0xFF	; 255
    1cbc:	3f 4f       	sbci	r19, 0xFF	; 255
    1cbe:	36 95       	lsr	r19
    1cc0:	27 95       	ror	r18
    1cc2:	c9 01       	movw	r24, r18
    1cc4:	df 91       	pop	r29
    1cc6:	cf 91       	pop	r28
    1cc8:	1f 91       	pop	r17
    1cca:	08 95       	ret

00001ccc <read_battery_millivolts_3pi>:
    1ccc:	0e 94 46 0e 	call	0x1c8c	; 0x1c8c <_ZN15OrangutanAnalog25readBatteryMillivolts_3piEv>
    1cd0:	08 95       	ret

00001cd2 <_ZN15OrangutanAnalog24readBatteryMillivolts_SVEv>:
    1cd2:	1f 93       	push	r17
    1cd4:	cf 93       	push	r28
    1cd6:	df 93       	push	r29
    1cd8:	0e 94 a9 0c 	call	0x1952	; 0x1952 <_ZN15OrangutanAnalog7getModeEv>
    1cdc:	18 2f       	mov	r17, r24
    1cde:	80 e0       	ldi	r24, 0x00	; 0
    1ce0:	0e 94 9d 0c 	call	0x193a	; 0x193a <_ZN15OrangutanAnalog7setModeEh>
    1ce4:	86 e0       	ldi	r24, 0x06	; 6
    1ce6:	6a e0       	ldi	r22, 0x0A	; 10
    1ce8:	70 e0       	ldi	r23, 0x00	; 0
    1cea:	0e 94 c0 0d 	call	0x1b80	; 0x1b80 <_ZN15OrangutanAnalog21readAverageMillivoltsEhj>
    1cee:	ec 01       	movw	r28, r24
    1cf0:	81 2f       	mov	r24, r17
    1cf2:	0e 94 9d 0c 	call	0x193a	; 0x193a <_ZN15OrangutanAnalog7setModeEh>
    1cf6:	9e 01       	movw	r18, r28
    1cf8:	22 0f       	add	r18, r18
    1cfa:	33 1f       	adc	r19, r19
    1cfc:	2c 0f       	add	r18, r28
    1cfe:	3d 1f       	adc	r19, r29
    1d00:	c9 01       	movw	r24, r18
    1d02:	df 91       	pop	r29
    1d04:	cf 91       	pop	r28
    1d06:	1f 91       	pop	r17
    1d08:	08 95       	ret

00001d0a <read_battery_millivolts_sv168>:
    1d0a:	0e 94 69 0e 	call	0x1cd2	; 0x1cd2 <_ZN15OrangutanAnalog24readBatteryMillivolts_SVEv>
    1d0e:	08 95       	ret

00001d10 <read_battery_millivolts_sv>:
    1d10:	0e 94 69 0e 	call	0x1cd2	; 0x1cd2 <_ZN15OrangutanAnalog24readBatteryMillivolts_SVEv>
    1d14:	08 95       	ret

00001d16 <_ZL16currentCharacterv>:
    1d16:	90 91 9d 02 	lds	r25, 0x029D
    1d1a:	e0 91 99 02 	lds	r30, 0x0299
    1d1e:	f0 91 9a 02 	lds	r31, 0x029A
    1d22:	99 23       	and	r25, r25
    1d24:	11 f0       	breq	.+4      	; 0x1d2a <_ZL16currentCharacterv+0x14>
    1d26:	84 91       	lpm	r24, Z+
    1d28:	01 c0       	rjmp	.+2      	; 0x1d2c <_ZL16currentCharacterv+0x16>
    1d2a:	80 81       	ld	r24, Z
    1d2c:	28 2f       	mov	r18, r24
    1d2e:	21 54       	subi	r18, 0x41	; 65
    1d30:	2a 31       	cpi	r18, 0x1A	; 26
    1d32:	10 f4       	brcc	.+4      	; 0x1d38 <_ZL16currentCharacterv+0x22>
    1d34:	80 5e       	subi	r24, 0xE0	; 224
    1d36:	08 95       	ret
    1d38:	80 32       	cpi	r24, 0x20	; 32
    1d3a:	71 f4       	brne	.+28     	; 0x1d58 <_ZL16currentCharacterv+0x42>
    1d3c:	20 91 99 02 	lds	r18, 0x0299
    1d40:	30 91 9a 02 	lds	r19, 0x029A
    1d44:	a9 01       	movw	r20, r18
    1d46:	4f 5f       	subi	r20, 0xFF	; 255
    1d48:	5f 4f       	sbci	r21, 0xFF	; 255
    1d4a:	50 93 9a 02 	sts	0x029A, r21
    1d4e:	40 93 99 02 	sts	0x0299, r20
    1d52:	21 15       	cp	r18, r1
    1d54:	31 05       	cpc	r19, r1
    1d56:	09 f7       	brne	.-62     	; 0x1d1a <_ZL16currentCharacterv+0x4>
    1d58:	08 95       	ret

00001d5a <_ZL9getNumberv>:
    1d5a:	ef 92       	push	r14
    1d5c:	ff 92       	push	r15
    1d5e:	cf 93       	push	r28
    1d60:	df 93       	push	r29
    1d62:	0e 94 8b 0e 	call	0x1d16	; 0x1d16 <_ZL16currentCharacterv>
    1d66:	c0 e0       	ldi	r28, 0x00	; 0
    1d68:	d0 e0       	ldi	r29, 0x00	; 0
    1d6a:	1b c0       	rjmp	.+54     	; 0x1da2 <_ZL9getNumberv+0x48>
    1d6c:	9e 01       	movw	r18, r28
    1d6e:	22 0f       	add	r18, r18
    1d70:	33 1f       	adc	r19, r19
    1d72:	93 e0       	ldi	r25, 0x03	; 3
    1d74:	cc 0f       	add	r28, r28
    1d76:	dd 1f       	adc	r29, r29
    1d78:	9a 95       	dec	r25
    1d7a:	e1 f7       	brne	.-8      	; 0x1d74 <_ZL9getNumberv+0x1a>
    1d7c:	c2 0f       	add	r28, r18
    1d7e:	d3 1f       	adc	r29, r19
    1d80:	99 27       	eor	r25, r25
    1d82:	87 fd       	sbrc	r24, 7
    1d84:	90 95       	com	r25
    1d86:	c8 0f       	add	r28, r24
    1d88:	d9 1f       	adc	r29, r25
    1d8a:	e0 97       	sbiw	r28, 0x30	; 48
    1d8c:	80 91 99 02 	lds	r24, 0x0299
    1d90:	90 91 9a 02 	lds	r25, 0x029A
    1d94:	01 96       	adiw	r24, 0x01	; 1
    1d96:	90 93 9a 02 	sts	0x029A, r25
    1d9a:	80 93 99 02 	sts	0x0299, r24
    1d9e:	0e 94 8b 0e 	call	0x1d16	; 0x1d16 <_ZL16currentCharacterv>
    1da2:	98 2f       	mov	r25, r24
    1da4:	90 53       	subi	r25, 0x30	; 48
    1da6:	9a 30       	cpi	r25, 0x0A	; 10
    1da8:	08 f3       	brcs	.-62     	; 0x1d6c <_ZL9getNumberv+0x12>
    1daa:	ce 01       	movw	r24, r28
    1dac:	df 91       	pop	r29
    1dae:	cf 91       	pop	r28
    1db0:	ff 90       	pop	r15
    1db2:	ef 90       	pop	r14
    1db4:	08 95       	ret

00001db6 <_ZN15OrangutanBuzzerC1Ev>:
    1db6:	08 95       	ret

00001db8 <_ZN15OrangutanBuzzer5init2Ev>:
    1db8:	10 92 6f 00 	sts	0x006F, r1
    1dbc:	83 e2       	ldi	r24, 0x23	; 35
    1dbe:	80 93 80 00 	sts	0x0080, r24
    1dc2:	81 e1       	ldi	r24, 0x11	; 17
    1dc4:	80 93 81 00 	sts	0x0081, r24
    1dc8:	10 92 82 00 	sts	0x0082, r1
    1dcc:	80 e1       	ldi	r24, 0x10	; 16
    1dce:	97 e2       	ldi	r25, 0x27	; 39
    1dd0:	90 93 89 00 	sts	0x0089, r25
    1dd4:	80 93 88 00 	sts	0x0088, r24
    1dd8:	10 92 8b 00 	sts	0x008B, r1
    1ddc:	10 92 8a 00 	sts	0x008A, r1
    1de0:	22 9a       	sbi	0x04, 2	; 4
    1de2:	78 94       	sei
    1de4:	08 95       	ret

00001de6 <_ZN15OrangutanBuzzer4initEv>:
    1de6:	80 91 98 02 	lds	r24, 0x0298
    1dea:	88 23       	and	r24, r24
    1dec:	29 f4       	brne	.+10     	; 0x1df8 <_ZN15OrangutanBuzzer4initEv+0x12>
    1dee:	81 e0       	ldi	r24, 0x01	; 1
    1df0:	80 93 98 02 	sts	0x0298, r24
    1df4:	0e 94 dc 0e 	call	0x1db8	; 0x1db8 <_ZN15OrangutanBuzzer5init2Ev>
    1df8:	08 95       	ret

00001dfa <_ZN15OrangutanBuzzer13playFrequencyEjjh>:
    1dfa:	a0 e0       	ldi	r26, 0x00	; 0
    1dfc:	b0 e0       	ldi	r27, 0x00	; 0
    1dfe:	e3 e0       	ldi	r30, 0x03	; 3
    1e00:	ff e0       	ldi	r31, 0x0F	; 15
    1e02:	0c 94 f7 21 	jmp	0x43ee	; 0x43ee <__prologue_saves__+0xc>
    1e06:	8c 01       	movw	r16, r24
    1e08:	5b 01       	movw	r10, r22
    1e0a:	e4 2e       	mov	r14, r20
    1e0c:	0e 94 f3 0e 	call	0x1de6	; 0x1de6 <_ZN15OrangutanBuzzer4initEv>
    1e10:	10 92 60 01 	sts	0x0160, r1
    1e14:	17 ff       	sbrs	r17, 7
    1e16:	04 c0       	rjmp	.+8      	; 0x1e20 <_ZN15OrangutanBuzzer13playFrequencyEjjh+0x26>
    1e18:	1f 77       	andi	r17, 0x7F	; 127
    1e1a:	aa e0       	ldi	r26, 0x0A	; 10
    1e1c:	fa 2e       	mov	r15, r26
    1e1e:	02 c0       	rjmp	.+4      	; 0x1e24 <_ZN15OrangutanBuzzer13playFrequencyEjjh+0x2a>
    1e20:	ff 24       	eor	r15, r15
    1e22:	f3 94       	inc	r15
    1e24:	c0 90 81 00 	lds	r12, 0x0081
    1e28:	dd 24       	eor	r13, r13
    1e2a:	28 ef       	ldi	r18, 0xF8	; 248
    1e2c:	c2 22       	and	r12, r18
    1e2e:	dd 24       	eor	r13, r13
    1e30:	88 ec       	ldi	r24, 0xC8	; 200
    1e32:	3f 2d       	mov	r19, r15
    1e34:	38 9f       	mul	r19, r24
    1e36:	c0 01       	movw	r24, r0
    1e38:	11 24       	eor	r1, r1
    1e3a:	80 17       	cp	r24, r16
    1e3c:	91 07       	cpc	r25, r17
    1e3e:	d8 f4       	brcc	.+54     	; 0x1e76 <_ZN15OrangutanBuzzer13playFrequencyEjjh+0x7c>
    1e40:	e8 01       	movw	r28, r16
    1e42:	67 e2       	ldi	r22, 0x27	; 39
    1e44:	01 31       	cpi	r16, 0x11	; 17
    1e46:	16 07       	cpc	r17, r22
    1e48:	10 f0       	brcs	.+4      	; 0x1e4e <_ZN15OrangutanBuzzer13playFrequencyEjjh+0x54>
    1e4a:	c0 e1       	ldi	r28, 0x10	; 16
    1e4c:	d7 e2       	ldi	r29, 0x27	; 39
    1e4e:	be 01       	movw	r22, r28
    1e50:	76 95       	lsr	r23
    1e52:	67 95       	ror	r22
    1e54:	80 e0       	ldi	r24, 0x00	; 0
    1e56:	90 e0       	ldi	r25, 0x00	; 0
    1e58:	60 58       	subi	r22, 0x80	; 128
    1e5a:	79 46       	sbci	r23, 0x69	; 105
    1e5c:	87 46       	sbci	r24, 0x67	; 103
    1e5e:	9f 4f       	sbci	r25, 0xFF	; 255
    1e60:	9e 01       	movw	r18, r28
    1e62:	40 e0       	ldi	r20, 0x00	; 0
    1e64:	50 e0       	ldi	r21, 0x00	; 0
    1e66:	0e 94 b4 21 	call	0x4368	; 0x4368 <__udivmodsi4>
    1e6a:	89 01       	movw	r16, r18
    1e6c:	81 e0       	ldi	r24, 0x01	; 1
    1e6e:	90 e0       	ldi	r25, 0x00	; 0
    1e70:	c8 2a       	or	r12, r24
    1e72:	d9 2a       	or	r13, r25
    1e74:	2c c0       	rjmp	.+88     	; 0x1ece <_ZN15OrangutanBuzzer13playFrequencyEjjh+0xd4>
    1e76:	98 e2       	ldi	r25, 0x28	; 40
    1e78:	f9 9e       	mul	r15, r25
    1e7a:	90 2d       	mov	r25, r0
    1e7c:	11 24       	eor	r1, r1
    1e7e:	80 e0       	ldi	r24, 0x00	; 0
    1e80:	89 2e       	mov	r8, r25
    1e82:	e4 01       	movw	r28, r8
    1e84:	4e 01       	movw	r8, r28
    1e86:	98 2e       	mov	r9, r24
    1e88:	e4 01       	movw	r28, r8
    1e8a:	80 16       	cp	r8, r16
    1e8c:	91 06       	cpc	r9, r17
    1e8e:	08 f4       	brcc	.+2      	; 0x1e92 <_ZN15OrangutanBuzzer13playFrequencyEjjh+0x98>
    1e90:	e8 01       	movw	r28, r16
    1e92:	be 01       	movw	r22, r28
    1e94:	76 95       	lsr	r23
    1e96:	67 95       	ror	r22
    1e98:	9e 01       	movw	r18, r28
    1e9a:	40 e0       	ldi	r20, 0x00	; 0
    1e9c:	50 e0       	ldi	r21, 0x00	; 0
    1e9e:	8f 2d       	mov	r24, r15
    1ea0:	8a 30       	cpi	r24, 0x0A	; 10
    1ea2:	39 f4       	brne	.+14     	; 0x1eb2 <_ZN15OrangutanBuzzer13playFrequencyEjjh+0xb8>
    1ea4:	80 e0       	ldi	r24, 0x00	; 0
    1ea6:	90 e0       	ldi	r25, 0x00	; 0
    1ea8:	60 5e       	subi	r22, 0xE0	; 224
    1eaa:	73 44       	sbci	r23, 0x43	; 67
    1eac:	81 44       	sbci	r24, 0x41	; 65
    1eae:	9f 4f       	sbci	r25, 0xFF	; 255
    1eb0:	06 c0       	rjmp	.+12     	; 0x1ebe <_ZN15OrangutanBuzzer13playFrequencyEjjh+0xc4>
    1eb2:	80 e0       	ldi	r24, 0x00	; 0
    1eb4:	90 e0       	ldi	r25, 0x00	; 0
    1eb6:	60 53       	subi	r22, 0x30	; 48
    1eb8:	7d 4e       	sbci	r23, 0xED	; 237
    1eba:	8c 4e       	sbci	r24, 0xEC	; 236
    1ebc:	9f 4f       	sbci	r25, 0xFF	; 255
    1ebe:	0e 94 b4 21 	call	0x4368	; 0x4368 <__udivmodsi4>
    1ec2:	89 01       	movw	r16, r18
    1ec4:	52 e0       	ldi	r21, 0x02	; 2
    1ec6:	85 2e       	mov	r8, r21
    1ec8:	91 2c       	mov	r9, r1
    1eca:	c8 28       	or	r12, r8
    1ecc:	d9 28       	or	r13, r9
    1ece:	2f 2d       	mov	r18, r15
    1ed0:	2a 30       	cpi	r18, 0x0A	; 10
    1ed2:	39 f4       	brne	.+14     	; 0x1ee2 <_ZN15OrangutanBuzzer13playFrequencyEjjh+0xe8>
    1ed4:	ce 01       	movw	r24, r28
    1ed6:	05 96       	adiw	r24, 0x05	; 5
    1ed8:	6a e0       	ldi	r22, 0x0A	; 10
    1eda:	70 e0       	ldi	r23, 0x00	; 0
    1edc:	0e 94 8d 21 	call	0x431a	; 0x431a <__udivmodhi4>
    1ee0:	eb 01       	movw	r28, r22
    1ee2:	33 e0       	ldi	r19, 0x03	; 3
    1ee4:	c8 3e       	cpi	r28, 0xE8	; 232
    1ee6:	d3 07       	cpc	r29, r19
    1ee8:	79 f0       	breq	.+30     	; 0x1f08 <_ZN15OrangutanBuzzer13playFrequencyEjjh+0x10e>
    1eea:	be 01       	movw	r22, r28
    1eec:	80 e0       	ldi	r24, 0x00	; 0
    1eee:	90 e0       	ldi	r25, 0x00	; 0
    1ef0:	95 01       	movw	r18, r10
    1ef2:	40 e0       	ldi	r20, 0x00	; 0
    1ef4:	50 e0       	ldi	r21, 0x00	; 0
    1ef6:	0e 94 62 21 	call	0x42c4	; 0x42c4 <__mulsi3>
    1efa:	28 ee       	ldi	r18, 0xE8	; 232
    1efc:	33 e0       	ldi	r19, 0x03	; 3
    1efe:	40 e0       	ldi	r20, 0x00	; 0
    1f00:	50 e0       	ldi	r21, 0x00	; 0
    1f02:	0e 94 d6 21 	call	0x43ac	; 0x43ac <__divmodsi4>
    1f06:	01 c0       	rjmp	.+2      	; 0x1f0a <_ZN15OrangutanBuzzer13playFrequencyEjjh+0x110>
    1f08:	95 01       	movw	r18, r10
    1f0a:	10 92 6f 00 	sts	0x006F, r1
    1f0e:	c0 92 81 00 	sts	0x0081, r12
    1f12:	10 93 89 00 	sts	0x0089, r17
    1f16:	00 93 88 00 	sts	0x0088, r16
    1f1a:	40 91 88 00 	lds	r20, 0x0088
    1f1e:	50 91 89 00 	lds	r21, 0x0089
    1f22:	6e 2d       	mov	r22, r14
    1f24:	60 31       	cpi	r22, 0x10	; 16
    1f26:	08 f0       	brcs	.+2      	; 0x1f2a <_ZN15OrangutanBuzzer13playFrequencyEjjh+0x130>
    1f28:	6f e0       	ldi	r22, 0x0F	; 15
    1f2a:	80 e1       	ldi	r24, 0x10	; 16
    1f2c:	90 e0       	ldi	r25, 0x00	; 0
    1f2e:	86 1b       	sub	r24, r22
    1f30:	91 09       	sbc	r25, r1
    1f32:	ba 01       	movw	r22, r20
    1f34:	02 c0       	rjmp	.+4      	; 0x1f3a <_ZN15OrangutanBuzzer13playFrequencyEjjh+0x140>
    1f36:	76 95       	lsr	r23
    1f38:	67 95       	ror	r22
    1f3a:	8a 95       	dec	r24
    1f3c:	e2 f7       	brpl	.-8      	; 0x1f36 <_ZN15OrangutanBuzzer13playFrequencyEjjh+0x13c>
    1f3e:	70 93 8b 00 	sts	0x008B, r23
    1f42:	60 93 8a 00 	sts	0x008A, r22
    1f46:	30 93 a0 02 	sts	0x02A0, r19
    1f4a:	20 93 9f 02 	sts	0x029F, r18
    1f4e:	86 b3       	in	r24, 0x16	; 22
    1f50:	8f ef       	ldi	r24, 0xFF	; 255
    1f52:	86 bb       	out	0x16, r24	; 22
    1f54:	81 e0       	ldi	r24, 0x01	; 1
    1f56:	80 93 6f 00 	sts	0x006F, r24
    1f5a:	cd b7       	in	r28, 0x3d	; 61
    1f5c:	de b7       	in	r29, 0x3e	; 62
    1f5e:	ec e0       	ldi	r30, 0x0C	; 12
    1f60:	0c 94 13 22 	jmp	0x4426	; 0x4426 <__epilogue_restores__+0xc>

00001f64 <play_frequency>:
    1f64:	0e 94 fd 0e 	call	0x1dfa	; 0x1dfa <_ZN15OrangutanBuzzer13playFrequencyEjjh>
    1f68:	08 95       	ret

00001f6a <_ZN15OrangutanBuzzer8playNoteEhjh>:
    1f6a:	9b 01       	movw	r18, r22
    1f6c:	8f 3f       	cpi	r24, 0xFF	; 255
    1f6e:	11 f0       	breq	.+4      	; 0x1f74 <_ZN15OrangutanBuzzer8playNoteEhjh+0xa>
    1f70:	44 23       	and	r20, r20
    1f72:	29 f4       	brne	.+10     	; 0x1f7e <_ZN15OrangutanBuzzer8playNoteEhjh+0x14>
    1f74:	88 ee       	ldi	r24, 0xE8	; 232
    1f76:	93 e0       	ldi	r25, 0x03	; 3
    1f78:	b9 01       	movw	r22, r18
    1f7a:	40 e0       	ldi	r20, 0x00	; 0
    1f7c:	49 c0       	rjmp	.+146    	; 0x2010 <_ZN15OrangutanBuzzer8playNoteEhjh+0xa6>
    1f7e:	81 31       	cpi	r24, 0x11	; 17
    1f80:	30 f0       	brcs	.+12     	; 0x1f8e <_ZN15OrangutanBuzzer8playNoteEhjh+0x24>
    1f82:	58 2f       	mov	r21, r24
    1f84:	50 51       	subi	r21, 0x10	; 16
    1f86:	50 36       	cpi	r21, 0x60	; 96
    1f88:	18 f0       	brcs	.+6      	; 0x1f90 <_ZN15OrangutanBuzzer8playNoteEhjh+0x26>
    1f8a:	5f e5       	ldi	r21, 0x5F	; 95
    1f8c:	01 c0       	rjmp	.+2      	; 0x1f90 <_ZN15OrangutanBuzzer8playNoteEhjh+0x26>
    1f8e:	50 e0       	ldi	r21, 0x00	; 0
    1f90:	85 2f       	mov	r24, r21
    1f92:	6c e0       	ldi	r22, 0x0C	; 12
    1f94:	0e 94 81 21 	call	0x4302	; 0x4302 <__udivmodqi4>
    1f98:	a8 2f       	mov	r26, r24
    1f9a:	b0 e0       	ldi	r27, 0x00	; 0
    1f9c:	e4 ef       	ldi	r30, 0xF4	; 244
    1f9e:	ff ef       	ldi	r31, 0xFF	; 255
    1fa0:	ae 9f       	mul	r26, r30
    1fa2:	b0 01       	movw	r22, r0
    1fa4:	af 9f       	mul	r26, r31
    1fa6:	70 0d       	add	r23, r0
    1fa8:	be 9f       	mul	r27, r30
    1faa:	70 0d       	add	r23, r0
    1fac:	11 24       	eor	r1, r1
    1fae:	65 0f       	add	r22, r21
    1fb0:	71 1d       	adc	r23, r1
    1fb2:	6c 30       	cpi	r22, 0x0C	; 12
    1fb4:	71 05       	cpc	r23, r1
    1fb6:	40 f4       	brcc	.+16     	; 0x1fc8 <_ZN15OrangutanBuzzer8playNoteEhjh+0x5e>
    1fb8:	fb 01       	movw	r30, r22
    1fba:	ee 0f       	add	r30, r30
    1fbc:	ff 1f       	adc	r31, r31
    1fbe:	e6 59       	subi	r30, 0x96	; 150
    1fc0:	fe 4f       	sbci	r31, 0xFE	; 254
    1fc2:	60 81       	ld	r22, Z
    1fc4:	71 81       	ldd	r23, Z+1	; 0x01
    1fc6:	02 c0       	rjmp	.+4      	; 0x1fcc <_ZN15OrangutanBuzzer8playNoteEhjh+0x62>
    1fc8:	60 e0       	ldi	r22, 0x00	; 0
    1fca:	70 e0       	ldi	r23, 0x00	; 0
    1fcc:	87 30       	cpi	r24, 0x07	; 7
    1fce:	81 f0       	breq	.+32     	; 0x1ff0 <_ZN15OrangutanBuzzer8playNoteEhjh+0x86>
    1fd0:	08 2e       	mov	r0, r24
    1fd2:	02 c0       	rjmp	.+4      	; 0x1fd8 <_ZN15OrangutanBuzzer8playNoteEhjh+0x6e>
    1fd4:	66 0f       	add	r22, r22
    1fd6:	77 1f       	adc	r23, r23
    1fd8:	0a 94       	dec	r0
    1fda:	e2 f7       	brpl	.-8      	; 0x1fd4 <_ZN15OrangutanBuzzer8playNoteEhjh+0x6a>
    1fdc:	82 30       	cpi	r24, 0x02	; 2
    1fde:	28 f0       	brcs	.+10     	; 0x1fea <_ZN15OrangutanBuzzer8playNoteEhjh+0x80>
    1fe0:	cb 01       	movw	r24, r22
    1fe2:	05 96       	adiw	r24, 0x05	; 5
    1fe4:	6a e0       	ldi	r22, 0x0A	; 10
    1fe6:	70 e0       	ldi	r23, 0x00	; 0
    1fe8:	0c c0       	rjmp	.+24     	; 0x2002 <_ZN15OrangutanBuzzer8playNoteEhjh+0x98>
    1fea:	60 50       	subi	r22, 0x00	; 0
    1fec:	70 48       	sbci	r23, 0x80	; 128
    1fee:	0b c0       	rjmp	.+22     	; 0x2006 <_ZN15OrangutanBuzzer8playNoteEhjh+0x9c>
    1ff0:	cb 01       	movw	r24, r22
    1ff2:	b6 e0       	ldi	r27, 0x06	; 6
    1ff4:	88 0f       	add	r24, r24
    1ff6:	99 1f       	adc	r25, r25
    1ff8:	ba 95       	dec	r27
    1ffa:	e1 f7       	brne	.-8      	; 0x1ff4 <_ZN15OrangutanBuzzer8playNoteEhjh+0x8a>
    1ffc:	02 96       	adiw	r24, 0x02	; 2
    1ffe:	65 e0       	ldi	r22, 0x05	; 5
    2000:	70 e0       	ldi	r23, 0x00	; 0
    2002:	0e 94 8d 21 	call	0x431a	; 0x431a <__udivmodhi4>
    2006:	40 31       	cpi	r20, 0x10	; 16
    2008:	08 f0       	brcs	.+2      	; 0x200c <_ZN15OrangutanBuzzer8playNoteEhjh+0xa2>
    200a:	4f e0       	ldi	r20, 0x0F	; 15
    200c:	cb 01       	movw	r24, r22
    200e:	b9 01       	movw	r22, r18
    2010:	0e 94 fd 0e 	call	0x1dfa	; 0x1dfa <_ZN15OrangutanBuzzer13playFrequencyEjjh>
    2014:	08 95       	ret

00002016 <_ZL8nextNotev>:
    2016:	a0 e0       	ldi	r26, 0x00	; 0
    2018:	b0 e0       	ldi	r27, 0x00	; 0
    201a:	e1 e1       	ldi	r30, 0x11	; 17
    201c:	f0 e1       	ldi	r31, 0x10	; 16
    201e:	0c 94 f6 21 	jmp	0x43ec	; 0x43ec <__prologue_saves__+0xa>
    2022:	b0 90 61 01 	lds	r11, 0x0161
    2026:	80 91 9b 02 	lds	r24, 0x029B
    202a:	88 23       	and	r24, r24
    202c:	61 f0       	breq	.+24     	; 0x2046 <_ZL8nextNotev+0x30>
    202e:	60 91 9c 02 	lds	r22, 0x029C
    2032:	66 23       	and	r22, r22
    2034:	41 f0       	breq	.+16     	; 0x2046 <_ZL8nextNotev+0x30>
    2036:	8f ef       	ldi	r24, 0xFF	; 255
    2038:	70 e0       	ldi	r23, 0x00	; 0
    203a:	40 e0       	ldi	r20, 0x00	; 0
    203c:	0e 94 b5 0f 	call	0x1f6a	; 0x1f6a <_ZN15OrangutanBuzzer8playNoteEhjh>
    2040:	10 92 9c 02 	sts	0x029C, r1
    2044:	34 c1       	rjmp	.+616    	; 0x22ae <_ZL8nextNotev+0x298>
    2046:	c0 ec       	ldi	r28, 0xC0	; 192
    2048:	dd e5       	ldi	r29, 0x5D	; 93
    204a:	aa 24       	eor	r10, r10
    204c:	a3 94       	inc	r10
    204e:	14 e0       	ldi	r17, 0x04	; 4
    2050:	71 2e       	mov	r7, r17
    2052:	00 ed       	ldi	r16, 0xD0	; 208
    2054:	17 e0       	ldi	r17, 0x07	; 7
    2056:	b4 e0       	ldi	r27, 0x04	; 4
    2058:	eb 2e       	mov	r14, r27
    205a:	f1 2c       	mov	r15, r1
    205c:	a4 ef       	ldi	r26, 0xF4	; 244
    205e:	ca 2e       	mov	r12, r26
    2060:	a1 e0       	ldi	r26, 0x01	; 1
    2062:	da 2e       	mov	r13, r26
    2064:	ff e0       	ldi	r31, 0x0F	; 15
    2066:	8f 2e       	mov	r8, r31
    2068:	91 2c       	mov	r9, r1
    206a:	0e 94 8b 0e 	call	0x1d16	; 0x1d16 <_ZL16currentCharacterv>
    206e:	20 91 99 02 	lds	r18, 0x0299
    2072:	30 91 9a 02 	lds	r19, 0x029A
    2076:	2f 5f       	subi	r18, 0xFF	; 255
    2078:	3f 4f       	sbci	r19, 0xFF	; 255
    207a:	30 93 9a 02 	sts	0x029A, r19
    207e:	20 93 99 02 	sts	0x0299, r18
    2082:	86 36       	cpi	r24, 0x66	; 102
    2084:	f1 f1       	breq	.+124    	; 0x2102 <_ZL8nextNotev+0xec>
    2086:	87 36       	cpi	r24, 0x67	; 103
    2088:	cc f4       	brge	.+50     	; 0x20bc <_ZL8nextNotev+0xa6>
    208a:	82 36       	cpi	r24, 0x62	; 98
    208c:	09 f4       	brne	.+2      	; 0x2090 <_ZL8nextNotev+0x7a>
    208e:	af c0       	rjmp	.+350    	; 0x21ee <_ZL8nextNotev+0x1d8>
    2090:	83 36       	cpi	r24, 0x63	; 99
    2092:	7c f4       	brge	.+30     	; 0x20b2 <_ZL8nextNotev+0x9c>
    2094:	8e 33       	cpi	r24, 0x3E	; 62
    2096:	49 f1       	breq	.+82     	; 0x20ea <_ZL8nextNotev+0xd4>
    2098:	8f 33       	cpi	r24, 0x3F	; 63
    209a:	3c f4       	brge	.+14     	; 0x20aa <_ZL8nextNotev+0x94>
    209c:	81 32       	cpi	r24, 0x21	; 33
    209e:	09 f4       	brne	.+2      	; 0x20a2 <_ZL8nextNotev+0x8c>
    20a0:	87 c0       	rjmp	.+270    	; 0x21b0 <_ZL8nextNotev+0x19a>
    20a2:	8c 33       	cpi	r24, 0x3C	; 60
    20a4:	09 f0       	breq	.+2      	; 0x20a8 <_ZL8nextNotev+0x92>
    20a6:	9b c0       	rjmp	.+310    	; 0x21de <_ZL8nextNotev+0x1c8>
    20a8:	22 c0       	rjmp	.+68     	; 0x20ee <_ZL8nextNotev+0xd8>
    20aa:	81 36       	cpi	r24, 0x61	; 97
    20ac:	09 f0       	breq	.+2      	; 0x20b0 <_ZL8nextNotev+0x9a>
    20ae:	97 c0       	rjmp	.+302    	; 0x21de <_ZL8nextNotev+0x1c8>
    20b0:	9b c0       	rjmp	.+310    	; 0x21e8 <_ZL8nextNotev+0x1d2>
    20b2:	84 36       	cpi	r24, 0x64	; 100
    20b4:	01 f1       	breq	.+64     	; 0x20f6 <_ZL8nextNotev+0xe0>
    20b6:	85 36       	cpi	r24, 0x65	; 101
    20b8:	0c f5       	brge	.+66     	; 0x20fc <_ZL8nextNotev+0xe6>
    20ba:	1b c0       	rjmp	.+54     	; 0x20f2 <_ZL8nextNotev+0xdc>
    20bc:	8f 36       	cpi	r24, 0x6F	; 111
    20be:	09 f4       	brne	.+2      	; 0x20c2 <_ZL8nextNotev+0xac>
    20c0:	47 c0       	rjmp	.+142    	; 0x2150 <_ZL8nextNotev+0x13a>
    20c2:	80 37       	cpi	r24, 0x70	; 112
    20c4:	44 f4       	brge	.+16     	; 0x20d6 <_ZL8nextNotev+0xc0>
    20c6:	8c 36       	cpi	r24, 0x6C	; 108
    20c8:	11 f1       	breq	.+68     	; 0x210e <_ZL8nextNotev+0xf8>
    20ca:	8d 36       	cpi	r24, 0x6D	; 109
    20cc:	61 f1       	breq	.+88     	; 0x2126 <_ZL8nextNotev+0x110>
    20ce:	87 36       	cpi	r24, 0x67	; 103
    20d0:	09 f0       	breq	.+2      	; 0x20d4 <_ZL8nextNotev+0xbe>
    20d2:	85 c0       	rjmp	.+266    	; 0x21de <_ZL8nextNotev+0x1c8>
    20d4:	19 c0       	rjmp	.+50     	; 0x2108 <_ZL8nextNotev+0xf2>
    20d6:	84 37       	cpi	r24, 0x74	; 116
    20d8:	09 f4       	brne	.+2      	; 0x20dc <_ZL8nextNotev+0xc6>
    20da:	44 c0       	rjmp	.+136    	; 0x2164 <_ZL8nextNotev+0x14e>
    20dc:	86 37       	cpi	r24, 0x76	; 118
    20de:	09 f4       	brne	.+2      	; 0x20e2 <_ZL8nextNotev+0xcc>
    20e0:	60 c0       	rjmp	.+192    	; 0x21a2 <_ZL8nextNotev+0x18c>
    20e2:	82 37       	cpi	r24, 0x72	; 114
    20e4:	09 f0       	breq	.+2      	; 0x20e8 <_ZL8nextNotev+0xd2>
    20e6:	7b c0       	rjmp	.+246    	; 0x21de <_ZL8nextNotev+0x1c8>
    20e8:	39 c0       	rjmp	.+114    	; 0x215c <_ZL8nextNotev+0x146>
    20ea:	b3 94       	inc	r11
    20ec:	be cf       	rjmp	.-132    	; 0x206a <_ZL8nextNotev+0x54>
    20ee:	ba 94       	dec	r11
    20f0:	bc cf       	rjmp	.-136    	; 0x206a <_ZL8nextNotev+0x54>
    20f2:	ee 24       	eor	r14, r14
    20f4:	35 c0       	rjmp	.+106    	; 0x2160 <_ZL8nextNotev+0x14a>
    20f6:	ee 24       	eor	r14, r14
    20f8:	82 e0       	ldi	r24, 0x02	; 2
    20fa:	7b c0       	rjmp	.+246    	; 0x21f2 <_ZL8nextNotev+0x1dc>
    20fc:	ee 24       	eor	r14, r14
    20fe:	84 e0       	ldi	r24, 0x04	; 4
    2100:	78 c0       	rjmp	.+240    	; 0x21f2 <_ZL8nextNotev+0x1dc>
    2102:	ee 24       	eor	r14, r14
    2104:	85 e0       	ldi	r24, 0x05	; 5
    2106:	75 c0       	rjmp	.+234    	; 0x21f2 <_ZL8nextNotev+0x1dc>
    2108:	ee 24       	eor	r14, r14
    210a:	87 e0       	ldi	r24, 0x07	; 7
    210c:	72 c0       	rjmp	.+228    	; 0x21f2 <_ZL8nextNotev+0x1dc>
    210e:	0e 94 ad 0e 	call	0x1d5a	; 0x1d5a <_ZL9getNumberv>
    2112:	bc 01       	movw	r22, r24
    2114:	90 93 63 01 	sts	0x0163, r25
    2118:	80 93 62 01 	sts	0x0162, r24
    211c:	80 91 64 01 	lds	r24, 0x0164
    2120:	90 91 65 01 	lds	r25, 0x0165
    2124:	37 c0       	rjmp	.+110    	; 0x2194 <_ZL8nextNotev+0x17e>
    2126:	0e 94 8b 0e 	call	0x1d16	; 0x1d16 <_ZL16currentCharacterv>
    212a:	8c 36       	cpi	r24, 0x6C	; 108
    212c:	19 f4       	brne	.+6      	; 0x2134 <_ZL8nextNotev+0x11e>
    212e:	10 92 9b 02 	sts	0x029B, r1
    2132:	04 c0       	rjmp	.+8      	; 0x213c <_ZL8nextNotev+0x126>
    2134:	a0 92 9b 02 	sts	0x029B, r10
    2138:	10 92 9c 02 	sts	0x029C, r1
    213c:	80 91 99 02 	lds	r24, 0x0299
    2140:	90 91 9a 02 	lds	r25, 0x029A
    2144:	01 96       	adiw	r24, 0x01	; 1
    2146:	90 93 9a 02 	sts	0x029A, r25
    214a:	80 93 99 02 	sts	0x0299, r24
    214e:	8d cf       	rjmp	.-230    	; 0x206a <_ZL8nextNotev+0x54>
    2150:	0e 94 ad 0e 	call	0x1d5a	; 0x1d5a <_ZL9getNumberv>
    2154:	b8 2e       	mov	r11, r24
    2156:	80 93 61 01 	sts	0x0161, r24
    215a:	87 cf       	rjmp	.-242    	; 0x206a <_ZL8nextNotev+0x54>
    215c:	ee 24       	eor	r14, r14
    215e:	e3 94       	inc	r14
    2160:	80 e0       	ldi	r24, 0x00	; 0
    2162:	47 c0       	rjmp	.+142    	; 0x21f2 <_ZL8nextNotev+0x1dc>
    2164:	0e 94 ad 0e 	call	0x1d5a	; 0x1d5a <_ZL9getNumberv>
    2168:	bc 01       	movw	r22, r24
    216a:	ce 01       	movw	r24, r28
    216c:	0e 94 8d 21 	call	0x431a	; 0x431a <__udivmodhi4>
    2170:	cb 01       	movw	r24, r22
    2172:	88 0f       	add	r24, r24
    2174:	99 1f       	adc	r25, r25
    2176:	53 e0       	ldi	r21, 0x03	; 3
    2178:	66 0f       	add	r22, r22
    217a:	77 1f       	adc	r23, r23
    217c:	5a 95       	dec	r21
    217e:	e1 f7       	brne	.-8      	; 0x2178 <_ZL8nextNotev+0x162>
    2180:	86 0f       	add	r24, r22
    2182:	97 1f       	adc	r25, r23
    2184:	90 93 65 01 	sts	0x0165, r25
    2188:	80 93 64 01 	sts	0x0164, r24
    218c:	60 91 62 01 	lds	r22, 0x0162
    2190:	70 91 63 01 	lds	r23, 0x0163
    2194:	0e 94 8d 21 	call	0x431a	; 0x431a <__udivmodhi4>
    2198:	70 93 67 01 	sts	0x0167, r23
    219c:	60 93 66 01 	sts	0x0166, r22
    21a0:	64 cf       	rjmp	.-312    	; 0x206a <_ZL8nextNotev+0x54>
    21a2:	0e 94 ad 0e 	call	0x1d5a	; 0x1d5a <_ZL9getNumberv>
    21a6:	90 93 69 01 	sts	0x0169, r25
    21aa:	80 93 68 01 	sts	0x0168, r24
    21ae:	5d cf       	rjmp	.-326    	; 0x206a <_ZL8nextNotev+0x54>
    21b0:	70 92 61 01 	sts	0x0161, r7
    21b4:	10 93 65 01 	sts	0x0165, r17
    21b8:	00 93 64 01 	sts	0x0164, r16
    21bc:	f0 92 63 01 	sts	0x0163, r15
    21c0:	e0 92 62 01 	sts	0x0162, r14
    21c4:	d0 92 67 01 	sts	0x0167, r13
    21c8:	c0 92 66 01 	sts	0x0166, r12
    21cc:	90 92 69 01 	sts	0x0169, r9
    21d0:	80 92 68 01 	sts	0x0168, r8
    21d4:	10 92 9b 02 	sts	0x029B, r1
    21d8:	44 e0       	ldi	r20, 0x04	; 4
    21da:	b4 2e       	mov	r11, r20
    21dc:	46 cf       	rjmp	.-372    	; 0x206a <_ZL8nextNotev+0x54>
    21de:	10 92 9a 02 	sts	0x029A, r1
    21e2:	10 92 99 02 	sts	0x0299, r1
    21e6:	63 c0       	rjmp	.+198    	; 0x22ae <_ZL8nextNotev+0x298>
    21e8:	ee 24       	eor	r14, r14
    21ea:	89 e0       	ldi	r24, 0x09	; 9
    21ec:	02 c0       	rjmp	.+4      	; 0x21f2 <_ZL8nextNotev+0x1dc>
    21ee:	ee 24       	eor	r14, r14
    21f0:	8b e0       	ldi	r24, 0x0B	; 11
    21f2:	9c e0       	ldi	r25, 0x0C	; 12
    21f4:	b9 9e       	mul	r11, r25
    21f6:	b0 2c       	mov	r11, r0
    21f8:	11 24       	eor	r1, r1
    21fa:	b8 0e       	add	r11, r24
    21fc:	0e 94 8b 0e 	call	0x1d16	; 0x1d16 <_ZL16currentCharacterv>
    2200:	8b 32       	cpi	r24, 0x2B	; 43
    2202:	11 f0       	breq	.+4      	; 0x2208 <_ZL8nextNotev+0x1f2>
    2204:	83 32       	cpi	r24, 0x23	; 35
    2206:	b9 f4       	brne	.+46     	; 0x2236 <_ZL8nextNotev+0x220>
    2208:	80 91 99 02 	lds	r24, 0x0299
    220c:	90 91 9a 02 	lds	r25, 0x029A
    2210:	01 96       	adiw	r24, 0x01	; 1
    2212:	90 93 9a 02 	sts	0x029A, r25
    2216:	80 93 99 02 	sts	0x0299, r24
    221a:	b3 94       	inc	r11
    221c:	ef cf       	rjmp	.-34     	; 0x21fc <_ZL8nextNotev+0x1e6>
    221e:	80 91 99 02 	lds	r24, 0x0299
    2222:	90 91 9a 02 	lds	r25, 0x029A
    2226:	01 96       	adiw	r24, 0x01	; 1
    2228:	90 93 9a 02 	sts	0x029A, r25
    222c:	80 93 99 02 	sts	0x0299, r24
    2230:	ba 94       	dec	r11
    2232:	0e 94 8b 0e 	call	0x1d16	; 0x1d16 <_ZL16currentCharacterv>
    2236:	8d 32       	cpi	r24, 0x2D	; 45
    2238:	91 f3       	breq	.-28     	; 0x221e <_ZL8nextNotev+0x208>
    223a:	c0 91 66 01 	lds	r28, 0x0166
    223e:	d0 91 67 01 	lds	r29, 0x0167
    2242:	81 53       	subi	r24, 0x31	; 49
    2244:	88 30       	cpi	r24, 0x08	; 8
    2246:	58 f4       	brcc	.+22     	; 0x225e <_ZL8nextNotev+0x248>
    2248:	c0 91 64 01 	lds	r28, 0x0164
    224c:	d0 91 65 01 	lds	r29, 0x0165
    2250:	0e 94 ad 0e 	call	0x1d5a	; 0x1d5a <_ZL9getNumberv>
    2254:	bc 01       	movw	r22, r24
    2256:	ce 01       	movw	r24, r28
    2258:	0e 94 8d 21 	call	0x431a	; 0x431a <__udivmodhi4>
    225c:	eb 01       	movw	r28, r22
    225e:	8e 01       	movw	r16, r28
    2260:	0b c0       	rjmp	.+22     	; 0x2278 <_ZL8nextNotev+0x262>
    2262:	80 91 99 02 	lds	r24, 0x0299
    2266:	90 91 9a 02 	lds	r25, 0x029A
    226a:	01 96       	adiw	r24, 0x01	; 1
    226c:	90 93 9a 02 	sts	0x029A, r25
    2270:	80 93 99 02 	sts	0x0299, r24
    2274:	c0 0f       	add	r28, r16
    2276:	d1 1f       	adc	r29, r17
    2278:	16 95       	lsr	r17
    227a:	07 95       	ror	r16
    227c:	0e 94 8b 0e 	call	0x1d16	; 0x1d16 <_ZL16currentCharacterv>
    2280:	8e 32       	cpi	r24, 0x2E	; 46
    2282:	79 f3       	breq	.-34     	; 0x2262 <_ZL8nextNotev+0x24c>
    2284:	80 91 9b 02 	lds	r24, 0x029B
    2288:	88 23       	and	r24, r24
    228a:	39 f0       	breq	.+14     	; 0x229a <_ZL8nextNotev+0x284>
    228c:	ce 01       	movw	r24, r28
    228e:	96 95       	lsr	r25
    2290:	87 95       	ror	r24
    2292:	80 93 9c 02 	sts	0x029C, r24
    2296:	c8 1b       	sub	r28, r24
    2298:	d1 09       	sbc	r29, r1
    229a:	ee 20       	and	r14, r14
    229c:	11 f0       	breq	.+4      	; 0x22a2 <_ZL8nextNotev+0x28c>
    229e:	bb 24       	eor	r11, r11
    22a0:	ba 94       	dec	r11
    22a2:	8b 2d       	mov	r24, r11
    22a4:	be 01       	movw	r22, r28
    22a6:	40 91 68 01 	lds	r20, 0x0168
    22aa:	0e 94 b5 0f 	call	0x1f6a	; 0x1f6a <_ZN15OrangutanBuzzer8playNoteEhjh>
    22ae:	cd b7       	in	r28, 0x3d	; 61
    22b0:	de b7       	in	r29, 0x3e	; 62
    22b2:	ed e0       	ldi	r30, 0x0D	; 13
    22b4:	0c 94 12 22 	jmp	0x4424	; 0x4424 <__epilogue_restores__+0xa>

000022b8 <__vector_13>:
    22b8:	1f 92       	push	r1
    22ba:	0f 92       	push	r0
    22bc:	0f b6       	in	r0, 0x3f	; 63
    22be:	0f 92       	push	r0
    22c0:	11 24       	eor	r1, r1
    22c2:	2f 93       	push	r18
    22c4:	3f 93       	push	r19
    22c6:	4f 93       	push	r20
    22c8:	5f 93       	push	r21
    22ca:	6f 93       	push	r22
    22cc:	7f 93       	push	r23
    22ce:	8f 93       	push	r24
    22d0:	9f 93       	push	r25
    22d2:	af 93       	push	r26
    22d4:	bf 93       	push	r27
    22d6:	ef 93       	push	r30
    22d8:	ff 93       	push	r31
    22da:	80 91 9f 02 	lds	r24, 0x029F
    22de:	90 91 a0 02 	lds	r25, 0x02A0
    22e2:	9c 01       	movw	r18, r24
    22e4:	21 50       	subi	r18, 0x01	; 1
    22e6:	30 40       	sbci	r19, 0x00	; 0
    22e8:	30 93 a0 02 	sts	0x02A0, r19
    22ec:	20 93 9f 02 	sts	0x029F, r18
    22f0:	00 97       	sbiw	r24, 0x00	; 0
    22f2:	11 f5       	brne	.+68     	; 0x2338 <__vector_13+0x80>
    22f4:	10 92 6f 00 	sts	0x006F, r1
    22f8:	78 94       	sei
    22fa:	80 91 81 00 	lds	r24, 0x0081
    22fe:	88 7f       	andi	r24, 0xF8	; 248
    2300:	81 60       	ori	r24, 0x01	; 1
    2302:	80 93 81 00 	sts	0x0081, r24
    2306:	80 e1       	ldi	r24, 0x10	; 16
    2308:	97 e2       	ldi	r25, 0x27	; 39
    230a:	90 93 89 00 	sts	0x0089, r25
    230e:	80 93 88 00 	sts	0x0088, r24
    2312:	10 92 8b 00 	sts	0x008B, r1
    2316:	10 92 8a 00 	sts	0x008A, r1
    231a:	81 e0       	ldi	r24, 0x01	; 1
    231c:	80 93 60 01 	sts	0x0160, r24
    2320:	80 91 99 02 	lds	r24, 0x0299
    2324:	90 91 9a 02 	lds	r25, 0x029A
    2328:	00 97       	sbiw	r24, 0x00	; 0
    232a:	31 f0       	breq	.+12     	; 0x2338 <__vector_13+0x80>
    232c:	80 91 9e 02 	lds	r24, 0x029E
    2330:	88 23       	and	r24, r24
    2332:	11 f4       	brne	.+4      	; 0x2338 <__vector_13+0x80>
    2334:	0e 94 0b 10 	call	0x2016	; 0x2016 <_ZL8nextNotev>
    2338:	ff 91       	pop	r31
    233a:	ef 91       	pop	r30
    233c:	bf 91       	pop	r27
    233e:	af 91       	pop	r26
    2340:	9f 91       	pop	r25
    2342:	8f 91       	pop	r24
    2344:	7f 91       	pop	r23
    2346:	6f 91       	pop	r22
    2348:	5f 91       	pop	r21
    234a:	4f 91       	pop	r20
    234c:	3f 91       	pop	r19
    234e:	2f 91       	pop	r18
    2350:	0f 90       	pop	r0
    2352:	0f be       	out	0x3f, r0	; 63
    2354:	0f 90       	pop	r0
    2356:	1f 90       	pop	r1
    2358:	18 95       	reti

0000235a <play_note>:
    235a:	0e 94 b5 0f 	call	0x1f6a	; 0x1f6a <_ZN15OrangutanBuzzer8playNoteEhjh>
    235e:	08 95       	ret

00002360 <_ZN15OrangutanBuzzer9isPlayingEv>:
    2360:	80 91 60 01 	lds	r24, 0x0160
    2364:	88 23       	and	r24, r24
    2366:	51 f0       	breq	.+20     	; 0x237c <_ZN15OrangutanBuzzer9isPlayingEv+0x1c>
    2368:	81 e0       	ldi	r24, 0x01	; 1
    236a:	20 91 99 02 	lds	r18, 0x0299
    236e:	30 91 9a 02 	lds	r19, 0x029A
    2372:	21 15       	cp	r18, r1
    2374:	31 05       	cpc	r19, r1
    2376:	19 f4       	brne	.+6      	; 0x237e <_ZN15OrangutanBuzzer9isPlayingEv+0x1e>
    2378:	80 e0       	ldi	r24, 0x00	; 0
    237a:	08 95       	ret
    237c:	81 e0       	ldi	r24, 0x01	; 1
    237e:	08 95       	ret

00002380 <is_playing>:
    2380:	0e 94 b0 11 	call	0x2360	; 0x2360 <_ZN15OrangutanBuzzer9isPlayingEv>
    2384:	08 95       	ret

00002386 <_ZN15OrangutanBuzzer4playEPKc>:
    2386:	10 92 6f 00 	sts	0x006F, r1
    238a:	90 93 9a 02 	sts	0x029A, r25
    238e:	80 93 99 02 	sts	0x0299, r24
    2392:	10 92 9d 02 	sts	0x029D, r1
    2396:	10 92 9c 02 	sts	0x029C, r1
    239a:	0e 94 0b 10 	call	0x2016	; 0x2016 <_ZL8nextNotev>
    239e:	08 95       	ret

000023a0 <play>:
    23a0:	0e 94 c3 11 	call	0x2386	; 0x2386 <_ZN15OrangutanBuzzer4playEPKc>
    23a4:	08 95       	ret

000023a6 <_ZN15OrangutanBuzzer20playFromProgramSpaceEPKc>:
    23a6:	10 92 6f 00 	sts	0x006F, r1
    23aa:	90 93 9a 02 	sts	0x029A, r25
    23ae:	80 93 99 02 	sts	0x0299, r24
    23b2:	81 e0       	ldi	r24, 0x01	; 1
    23b4:	80 93 9d 02 	sts	0x029D, r24
    23b8:	10 92 9c 02 	sts	0x029C, r1
    23bc:	0e 94 0b 10 	call	0x2016	; 0x2016 <_ZL8nextNotev>
    23c0:	08 95       	ret

000023c2 <play_from_program_space>:
    23c2:	0e 94 d3 11 	call	0x23a6	; 0x23a6 <_ZN15OrangutanBuzzer20playFromProgramSpaceEPKc>
    23c6:	08 95       	ret

000023c8 <_ZN15OrangutanBuzzer11stopPlayingEv>:
    23c8:	10 92 6f 00 	sts	0x006F, r1
    23cc:	e1 e8       	ldi	r30, 0x81	; 129
    23ce:	f0 e0       	ldi	r31, 0x00	; 0
    23d0:	80 81       	ld	r24, Z
    23d2:	88 7f       	andi	r24, 0xF8	; 248
    23d4:	81 60       	ori	r24, 0x01	; 1
    23d6:	80 83       	st	Z, r24
    23d8:	80 e1       	ldi	r24, 0x10	; 16
    23da:	97 e2       	ldi	r25, 0x27	; 39
    23dc:	90 93 89 00 	sts	0x0089, r25
    23e0:	80 93 88 00 	sts	0x0088, r24
    23e4:	10 92 8b 00 	sts	0x008B, r1
    23e8:	10 92 8a 00 	sts	0x008A, r1
    23ec:	81 e0       	ldi	r24, 0x01	; 1
    23ee:	80 93 60 01 	sts	0x0160, r24
    23f2:	10 92 9a 02 	sts	0x029A, r1
    23f6:	10 92 99 02 	sts	0x0299, r1
    23fa:	08 95       	ret

000023fc <stop_playing>:
    23fc:	0e 94 e4 11 	call	0x23c8	; 0x23c8 <_ZN15OrangutanBuzzer11stopPlayingEv>
    2400:	08 95       	ret

00002402 <_ZN15OrangutanBuzzer9playCheckEv>:
    2402:	80 91 60 01 	lds	r24, 0x0160
    2406:	88 23       	and	r24, r24
    2408:	41 f0       	breq	.+16     	; 0x241a <_ZN15OrangutanBuzzer9playCheckEv+0x18>
    240a:	80 91 99 02 	lds	r24, 0x0299
    240e:	90 91 9a 02 	lds	r25, 0x029A
    2412:	00 97       	sbiw	r24, 0x00	; 0
    2414:	11 f0       	breq	.+4      	; 0x241a <_ZN15OrangutanBuzzer9playCheckEv+0x18>
    2416:	0e 94 0b 10 	call	0x2016	; 0x2016 <_ZL8nextNotev>
    241a:	81 e0       	ldi	r24, 0x01	; 1
    241c:	20 91 99 02 	lds	r18, 0x0299
    2420:	30 91 9a 02 	lds	r19, 0x029A
    2424:	21 15       	cp	r18, r1
    2426:	31 05       	cpc	r19, r1
    2428:	09 f4       	brne	.+2      	; 0x242c <_ZN15OrangutanBuzzer9playCheckEv+0x2a>
    242a:	80 e0       	ldi	r24, 0x00	; 0
    242c:	08 95       	ret

0000242e <_ZN15OrangutanBuzzer8playModeEh>:
    242e:	80 93 9e 02 	sts	0x029E, r24
    2432:	88 23       	and	r24, r24
    2434:	11 f4       	brne	.+4      	; 0x243a <_ZN15OrangutanBuzzer8playModeEh+0xc>
    2436:	0e 94 01 12 	call	0x2402	; 0x2402 <_ZN15OrangutanBuzzer9playCheckEv>
    243a:	08 95       	ret

0000243c <play_mode>:
    243c:	0e 94 17 12 	call	0x242e	; 0x242e <_ZN15OrangutanBuzzer8playModeEh>
    2440:	08 95       	ret

00002442 <play_check>:
    2442:	0e 94 01 12 	call	0x2402	; 0x2402 <_ZN15OrangutanBuzzer9playCheckEv>
    2446:	08 95       	ret

00002448 <void_getchar>:
    2448:	80 e0       	ldi	r24, 0x00	; 0
    244a:	90 e0       	ldi	r25, 0x00	; 0
    244c:	08 95       	ret

0000244e <delayMicroseconds.clone.0>:
    244e:	81 e0       	ldi	r24, 0x01	; 1
    2450:	90 e0       	ldi	r25, 0x00	; 0
    2452:	6f 93       	push	r22
    2454:	64 e0       	ldi	r22, 0x04	; 4
    2456:	6a 95       	dec	r22
    2458:	f1 f7       	brne	.-4      	; 0x2456 <delayMicroseconds.clone.0+0x8>
    245a:	6f 91       	pop	r22
    245c:	01 97       	sbiw	r24, 0x01	; 1
    245e:	c9 f7       	brne	.-14     	; 0x2452 <delayMicroseconds.clone.0+0x4>
    2460:	08 95       	ret

00002462 <_ZN12OrangutanLCDC1Ev>:
    2462:	08 95       	ret

00002464 <_ZN12OrangutanLCD8busyWaitEv>:
    2464:	0f 93       	push	r16
    2466:	1f 93       	push	r17
    2468:	cf 93       	push	r28
    246a:	df 93       	push	r29
    246c:	1a b1       	in	r17, 0x0a	; 10
    246e:	57 98       	cbi	0x0a, 7	; 10
    2470:	5a 98       	cbi	0x0b, 2	; 11
    2472:	28 9a       	sbi	0x05, 0	; 5
    2474:	c0 e0       	ldi	r28, 0x00	; 0
    2476:	d0 e0       	ldi	r29, 0x00	; 0
    2478:	0e 94 27 12 	call	0x244e	; 0x244e <delayMicroseconds.clone.0>
    247c:	5c 9a       	sbi	0x0b, 4	; 11
    247e:	0e 94 27 12 	call	0x244e	; 0x244e <delayMicroseconds.clone.0>
    2482:	09 b1       	in	r16, 0x09	; 9
    2484:	5c 98       	cbi	0x0b, 4	; 11
    2486:	0e 94 27 12 	call	0x244e	; 0x244e <delayMicroseconds.clone.0>
    248a:	5c 9a       	sbi	0x0b, 4	; 11
    248c:	0e 94 27 12 	call	0x244e	; 0x244e <delayMicroseconds.clone.0>
    2490:	5c 98       	cbi	0x0b, 4	; 11
    2492:	07 ff       	sbrs	r16, 7
    2494:	11 c0       	rjmp	.+34     	; 0x24b8 <_ZN12OrangutanLCD8busyWaitEv+0x54>
    2496:	24 96       	adiw	r28, 0x04	; 4
    2498:	9e 01       	movw	r18, r28
    249a:	40 e0       	ldi	r20, 0x00	; 0
    249c:	50 e0       	ldi	r21, 0x00	; 0
    249e:	80 91 a5 02 	lds	r24, 0x02A5
    24a2:	90 91 a6 02 	lds	r25, 0x02A6
    24a6:	a0 91 a7 02 	lds	r26, 0x02A7
    24aa:	b0 91 a8 02 	lds	r27, 0x02A8
    24ae:	28 17       	cp	r18, r24
    24b0:	39 07       	cpc	r19, r25
    24b2:	4a 07       	cpc	r20, r26
    24b4:	5b 07       	cpc	r21, r27
    24b6:	00 f3       	brcs	.-64     	; 0x2478 <_ZN12OrangutanLCD8busyWaitEv+0x14>
    24b8:	1a b9       	out	0x0a, r17	; 10
    24ba:	df 91       	pop	r29
    24bc:	cf 91       	pop	r28
    24be:	1f 91       	pop	r17
    24c0:	0f 91       	pop	r16
    24c2:	08 95       	ret

000024c4 <_ZN12OrangutanLCD8sendDataEh>:
    24c4:	65 b1       	in	r22, 0x05	; 5
    24c6:	90 e0       	ldi	r25, 0x00	; 0
    24c8:	ac 01       	movw	r20, r24
    24ca:	41 70       	andi	r20, 0x01	; 1
    24cc:	50 70       	andi	r21, 0x00	; 0
    24ce:	44 0f       	add	r20, r20
    24d0:	55 1f       	adc	r21, r21
    24d2:	9c 01       	movw	r18, r24
    24d4:	26 70       	andi	r18, 0x06	; 6
    24d6:	30 70       	andi	r19, 0x00	; 0
    24d8:	53 e0       	ldi	r21, 0x03	; 3
    24da:	22 0f       	add	r18, r18
    24dc:	33 1f       	adc	r19, r19
    24de:	5a 95       	dec	r21
    24e0:	e1 f7       	brne	.-8      	; 0x24da <_ZN12OrangutanLCD8sendDataEh+0x16>
    24e2:	24 2b       	or	r18, r20
    24e4:	6d 7c       	andi	r22, 0xCD	; 205
    24e6:	26 2b       	or	r18, r22
    24e8:	25 b9       	out	0x05, r18	; 5
    24ea:	2b b1       	in	r18, 0x0b	; 11
    24ec:	88 70       	andi	r24, 0x08	; 8
    24ee:	90 70       	andi	r25, 0x00	; 0
    24f0:	34 e0       	ldi	r19, 0x04	; 4
    24f2:	88 0f       	add	r24, r24
    24f4:	99 1f       	adc	r25, r25
    24f6:	3a 95       	dec	r19
    24f8:	e1 f7       	brne	.-8      	; 0x24f2 <_ZN12OrangutanLCD8sendDataEh+0x2e>
    24fa:	2f 77       	andi	r18, 0x7F	; 127
    24fc:	28 2b       	or	r18, r24
    24fe:	2b b9       	out	0x0b, r18	; 11
    2500:	5c 9a       	sbi	0x0b, 4	; 11
    2502:	0e 94 27 12 	call	0x244e	; 0x244e <delayMicroseconds.clone.0>
    2506:	5c 98       	cbi	0x0b, 4	; 11
    2508:	0e 94 27 12 	call	0x244e	; 0x244e <delayMicroseconds.clone.0>
    250c:	08 95       	ret

0000250e <_ZN12OrangutanLCD4sendEhhh>:
    250e:	a2 e0       	ldi	r26, 0x02	; 2
    2510:	b0 e0       	ldi	r27, 0x00	; 0
    2512:	ed e8       	ldi	r30, 0x8D	; 141
    2514:	f2 e1       	ldi	r31, 0x12	; 18
    2516:	0c 94 fc 21 	jmp	0x43f8	; 0x43f8 <__prologue_saves__+0x16>
    251a:	18 2f       	mov	r17, r24
    251c:	4a 83       	std	Y+2, r20	; 0x02
    251e:	69 83       	std	Y+1, r22	; 0x01
    2520:	0e 94 32 13 	call	0x2664	; 0x2664 <_ZN12OrangutanLCD4initEv>
    2524:	0e 94 32 12 	call	0x2464	; 0x2464 <_ZN12OrangutanLCD8busyWaitEv>
    2528:	f4 b0       	in	r15, 0x04	; 4
    252a:	05 b1       	in	r16, 0x05	; 5
    252c:	da b0       	in	r13, 0x0a	; 10
    252e:	eb b0       	in	r14, 0x0b	; 11
    2530:	28 98       	cbi	0x05, 0	; 5
    2532:	69 81       	ldd	r22, Y+1	; 0x01
    2534:	4a 81       	ldd	r20, Y+2	; 0x02
    2536:	66 23       	and	r22, r22
    2538:	11 f0       	breq	.+4      	; 0x253e <_ZN12OrangutanLCD4sendEhhh+0x30>
    253a:	5a 9a       	sbi	0x0b, 2	; 11
    253c:	01 c0       	rjmp	.+2      	; 0x2540 <_ZN12OrangutanLCD4sendEhhh+0x32>
    253e:	5a 98       	cbi	0x0b, 2	; 11
    2540:	84 b1       	in	r24, 0x04	; 4
    2542:	82 63       	ori	r24, 0x32	; 50
    2544:	84 b9       	out	0x04, r24	; 4
    2546:	57 9a       	sbi	0x0a, 7	; 10
    2548:	41 30       	cpi	r20, 0x01	; 1
    254a:	29 f0       	breq	.+10     	; 0x2556 <_ZN12OrangutanLCD4sendEhhh+0x48>
    254c:	81 2f       	mov	r24, r17
    254e:	82 95       	swap	r24
    2550:	8f 70       	andi	r24, 0x0F	; 15
    2552:	0e 94 62 12 	call	0x24c4	; 0x24c4 <_ZN12OrangutanLCD8sendDataEh>
    2556:	81 2f       	mov	r24, r17
    2558:	8f 70       	andi	r24, 0x0F	; 15
    255a:	0e 94 62 12 	call	0x24c4	; 0x24c4 <_ZN12OrangutanLCD8sendDataEh>
    255e:	da b8       	out	0x0a, r13	; 10
    2560:	eb b8       	out	0x0b, r14	; 11
    2562:	f4 b8       	out	0x04, r15	; 4
    2564:	05 b9       	out	0x05, r16	; 5
    2566:	22 96       	adiw	r28, 0x02	; 2
    2568:	e7 e0       	ldi	r30, 0x07	; 7
    256a:	0c 94 18 22 	jmp	0x4430	; 0x4430 <__epilogue_restores__+0x16>

0000256e <_ZN12OrangutanLCD8send_cmdEh>:
    256e:	60 e0       	ldi	r22, 0x00	; 0
    2570:	42 e0       	ldi	r20, 0x02	; 2
    2572:	0e 94 87 12 	call	0x250e	; 0x250e <_ZN12OrangutanLCD4sendEhhh>
    2576:	08 95       	ret

00002578 <_ZN12OrangutanLCD9send_dataEh>:
    2578:	61 e0       	ldi	r22, 0x01	; 1
    257a:	42 e0       	ldi	r20, 0x02	; 2
    257c:	0e 94 87 12 	call	0x250e	; 0x250e <_ZN12OrangutanLCD4sendEhhh>
    2580:	08 95       	ret

00002582 <_ZN12OrangutanLCD19loadCustomCharacterEPKch>:
    2582:	ef 92       	push	r14
    2584:	ff 92       	push	r15
    2586:	1f 93       	push	r17
    2588:	df 93       	push	r29
    258a:	cf 93       	push	r28
    258c:	0f 92       	push	r0
    258e:	cd b7       	in	r28, 0x3d	; 61
    2590:	de b7       	in	r29, 0x3e	; 62
    2592:	66 0f       	add	r22, r22
    2594:	66 0f       	add	r22, r22
    2596:	66 0f       	add	r22, r22
    2598:	48 2f       	mov	r20, r24
    259a:	59 2f       	mov	r21, r25
    259c:	7a 01       	movw	r14, r20
    259e:	10 e0       	ldi	r17, 0x00	; 0
    25a0:	81 2f       	mov	r24, r17
    25a2:	86 0f       	add	r24, r22
    25a4:	80 64       	ori	r24, 0x40	; 64
    25a6:	69 83       	std	Y+1, r22	; 0x01
    25a8:	0e 94 b7 12 	call	0x256e	; 0x256e <_ZN12OrangutanLCD8send_cmdEh>
    25ac:	f7 01       	movw	r30, r14
    25ae:	84 91       	lpm	r24, Z+
    25b0:	0e 94 bc 12 	call	0x2578	; 0x2578 <_ZN12OrangutanLCD9send_dataEh>
    25b4:	1f 5f       	subi	r17, 0xFF	; 255
    25b6:	08 94       	sec
    25b8:	e1 1c       	adc	r14, r1
    25ba:	f1 1c       	adc	r15, r1
    25bc:	69 81       	ldd	r22, Y+1	; 0x01
    25be:	18 30       	cpi	r17, 0x08	; 8
    25c0:	79 f7       	brne	.-34     	; 0x25a0 <_ZN12OrangutanLCD19loadCustomCharacterEPKch+0x1e>
    25c2:	0f 90       	pop	r0
    25c4:	cf 91       	pop	r28
    25c6:	df 91       	pop	r29
    25c8:	1f 91       	pop	r17
    25ca:	ff 90       	pop	r15
    25cc:	ef 90       	pop	r14
    25ce:	08 95       	ret

000025d0 <lcd_load_custom_character>:
    25d0:	0e 94 c1 12 	call	0x2582	; 0x2582 <_ZN12OrangutanLCD19loadCustomCharacterEPKch>
    25d4:	08 95       	ret

000025d6 <print_character>:
    25d6:	0e 94 bc 12 	call	0x2578	; 0x2578 <_ZN12OrangutanLCD9send_dataEh>
    25da:	08 95       	ret

000025dc <_ZN12OrangutanLCD13send_4bit_cmdEh>:
    25dc:	60 e0       	ldi	r22, 0x00	; 0
    25de:	41 e0       	ldi	r20, 0x01	; 1
    25e0:	0e 94 87 12 	call	0x250e	; 0x250e <_ZN12OrangutanLCD4sendEhhh>
    25e4:	08 95       	ret

000025e6 <_ZN12OrangutanLCD5init2Ev>:
    25e6:	80 e1       	ldi	r24, 0x10	; 16
    25e8:	97 e2       	ldi	r25, 0x27	; 39
    25ea:	a0 e0       	ldi	r26, 0x00	; 0
    25ec:	b0 e0       	ldi	r27, 0x00	; 0
    25ee:	80 93 a5 02 	sts	0x02A5, r24
    25f2:	90 93 a6 02 	sts	0x02A6, r25
    25f6:	a0 93 a7 02 	sts	0x02A7, r26
    25fa:	b0 93 a8 02 	sts	0x02A8, r27
    25fe:	52 9a       	sbi	0x0a, 2	; 10
    2600:	20 9a       	sbi	0x04, 0	; 4
    2602:	54 9a       	sbi	0x0a, 4	; 10
    2604:	8e e1       	ldi	r24, 0x1E	; 30
    2606:	90 e0       	ldi	r25, 0x00	; 0
    2608:	0e 94 5a 19 	call	0x32b4	; 0x32b4 <delay_ms>
    260c:	83 e0       	ldi	r24, 0x03	; 3
    260e:	0e 94 ee 12 	call	0x25dc	; 0x25dc <_ZN12OrangutanLCD13send_4bit_cmdEh>
    2612:	86 e0       	ldi	r24, 0x06	; 6
    2614:	90 e0       	ldi	r25, 0x00	; 0
    2616:	0e 94 5a 19 	call	0x32b4	; 0x32b4 <delay_ms>
    261a:	83 e0       	ldi	r24, 0x03	; 3
    261c:	0e 94 ee 12 	call	0x25dc	; 0x25dc <_ZN12OrangutanLCD13send_4bit_cmdEh>
    2620:	82 e0       	ldi	r24, 0x02	; 2
    2622:	90 e0       	ldi	r25, 0x00	; 0
    2624:	0e 94 5a 19 	call	0x32b4	; 0x32b4 <delay_ms>
    2628:	83 e0       	ldi	r24, 0x03	; 3
    262a:	0e 94 ee 12 	call	0x25dc	; 0x25dc <_ZN12OrangutanLCD13send_4bit_cmdEh>
    262e:	82 e0       	ldi	r24, 0x02	; 2
    2630:	90 e0       	ldi	r25, 0x00	; 0
    2632:	0e 94 5a 19 	call	0x32b4	; 0x32b4 <delay_ms>
    2636:	82 e0       	ldi	r24, 0x02	; 2
    2638:	0e 94 ee 12 	call	0x25dc	; 0x25dc <_ZN12OrangutanLCD13send_4bit_cmdEh>
    263c:	82 e0       	ldi	r24, 0x02	; 2
    263e:	90 e0       	ldi	r25, 0x00	; 0
    2640:	0e 94 5a 19 	call	0x32b4	; 0x32b4 <delay_ms>
    2644:	88 e2       	ldi	r24, 0x28	; 40
    2646:	0e 94 b7 12 	call	0x256e	; 0x256e <_ZN12OrangutanLCD8send_cmdEh>
    264a:	88 e0       	ldi	r24, 0x08	; 8
    264c:	0e 94 b7 12 	call	0x256e	; 0x256e <_ZN12OrangutanLCD8send_cmdEh>
    2650:	81 e0       	ldi	r24, 0x01	; 1
    2652:	0e 94 b7 12 	call	0x256e	; 0x256e <_ZN12OrangutanLCD8send_cmdEh>
    2656:	86 e0       	ldi	r24, 0x06	; 6
    2658:	0e 94 b7 12 	call	0x256e	; 0x256e <_ZN12OrangutanLCD8send_cmdEh>
    265c:	8c e0       	ldi	r24, 0x0C	; 12
    265e:	0e 94 b7 12 	call	0x256e	; 0x256e <_ZN12OrangutanLCD8send_cmdEh>
    2662:	08 95       	ret

00002664 <_ZN12OrangutanLCD4initEv>:
    2664:	80 91 a9 02 	lds	r24, 0x02A9
    2668:	88 23       	and	r24, r24
    266a:	29 f4       	brne	.+10     	; 0x2676 <_ZN12OrangutanLCD4initEv+0x12>
    266c:	81 e0       	ldi	r24, 0x01	; 1
    266e:	80 93 a9 02 	sts	0x02A9, r24
    2672:	0e 94 f3 12 	call	0x25e6	; 0x25e6 <_ZN12OrangutanLCD5init2Ev>
    2676:	08 95       	ret

00002678 <_ZN12OrangutanLCD5clearEv>:
    2678:	81 e0       	ldi	r24, 0x01	; 1
    267a:	0e 94 b7 12 	call	0x256e	; 0x256e <_ZN12OrangutanLCD8send_cmdEh>
    267e:	80 91 a1 02 	lds	r24, 0x02A1
    2682:	90 91 a2 02 	lds	r25, 0x02A2
    2686:	00 97       	sbiw	r24, 0x00	; 0
    2688:	11 f1       	breq	.+68     	; 0x26ce <_ZN12OrangutanLCD5clearEv+0x56>
    268a:	a0 e0       	ldi	r26, 0x00	; 0
    268c:	b0 e2       	ldi	r27, 0x20	; 32
    268e:	08 c0       	rjmp	.+16     	; 0x26a0 <_ZN12OrangutanLCD5clearEv+0x28>
    2690:	e0 91 a1 02 	lds	r30, 0x02A1
    2694:	f0 91 a2 02 	lds	r31, 0x02A2
    2698:	e2 0f       	add	r30, r18
    269a:	f3 1f       	adc	r31, r19
    269c:	b0 83       	st	Z, r27
    269e:	af 5f       	subi	r26, 0xFF	; 255
    26a0:	2a 2f       	mov	r18, r26
    26a2:	30 e0       	ldi	r19, 0x00	; 0
    26a4:	80 91 82 01 	lds	r24, 0x0182
    26a8:	90 e0       	ldi	r25, 0x00	; 0
    26aa:	01 97       	sbiw	r24, 0x01	; 1
    26ac:	60 91 83 01 	lds	r22, 0x0183
    26b0:	70 e0       	ldi	r23, 0x00	; 0
    26b2:	86 9f       	mul	r24, r22
    26b4:	a0 01       	movw	r20, r0
    26b6:	87 9f       	mul	r24, r23
    26b8:	50 0d       	add	r21, r0
    26ba:	96 9f       	mul	r25, r22
    26bc:	50 0d       	add	r21, r0
    26be:	11 24       	eor	r1, r1
    26c0:	24 17       	cp	r18, r20
    26c2:	35 07       	cpc	r19, r21
    26c4:	2c f3       	brlt	.-54     	; 0x2690 <_ZN12OrangutanLCD5clearEv+0x18>
    26c6:	10 92 a4 02 	sts	0x02A4, r1
    26ca:	10 92 a3 02 	sts	0x02A3, r1
    26ce:	08 95       	ret

000026d0 <clear>:
    26d0:	0e 94 3c 13 	call	0x2678	; 0x2678 <_ZN12OrangutanLCD5clearEv>
    26d4:	08 95       	ret

000026d6 <_ZN12OrangutanLCD5printEc>:
    26d6:	0e 94 bc 12 	call	0x2578	; 0x2578 <_ZN12OrangutanLCD9send_dataEh>
    26da:	08 95       	ret

000026dc <_ZN12OrangutanLCD5printEPKc>:
    26dc:	ef 92       	push	r14
    26de:	ff 92       	push	r15
    26e0:	cf 93       	push	r28
    26e2:	df 93       	push	r29
    26e4:	e8 2e       	mov	r14, r24
    26e6:	e7 01       	movw	r28, r14
    26e8:	7e 01       	movw	r14, r28
    26ea:	f9 2e       	mov	r15, r25
    26ec:	e7 01       	movw	r28, r14
    26ee:	02 c0       	rjmp	.+4      	; 0x26f4 <_ZN12OrangutanLCD5printEPKc+0x18>
    26f0:	0e 94 bc 12 	call	0x2578	; 0x2578 <_ZN12OrangutanLCD9send_dataEh>
    26f4:	89 91       	ld	r24, Y+
    26f6:	88 23       	and	r24, r24
    26f8:	d9 f7       	brne	.-10     	; 0x26f0 <_ZN12OrangutanLCD5printEPKc+0x14>
    26fa:	df 91       	pop	r29
    26fc:	cf 91       	pop	r28
    26fe:	ff 90       	pop	r15
    2700:	ef 90       	pop	r14
    2702:	08 95       	ret

00002704 <print>:
    2704:	0e 94 6e 13 	call	0x26dc	; 0x26dc <_ZN12OrangutanLCD5printEPKc>
    2708:	08 95       	ret

0000270a <_ZN12OrangutanLCD21printFromProgramSpaceEPKc>:
    270a:	cf 93       	push	r28
    270c:	df 93       	push	r29
    270e:	ec 01       	movw	r28, r24
    2710:	03 c0       	rjmp	.+6      	; 0x2718 <_ZN12OrangutanLCD21printFromProgramSpaceEPKc+0xe>
    2712:	0e 94 bc 12 	call	0x2578	; 0x2578 <_ZN12OrangutanLCD9send_dataEh>
    2716:	21 96       	adiw	r28, 0x01	; 1
    2718:	fe 01       	movw	r30, r28
    271a:	84 91       	lpm	r24, Z+
    271c:	88 23       	and	r24, r24
    271e:	c9 f7       	brne	.-14     	; 0x2712 <_ZN12OrangutanLCD21printFromProgramSpaceEPKc+0x8>
    2720:	df 91       	pop	r29
    2722:	cf 91       	pop	r28
    2724:	08 95       	ret

00002726 <print_from_program_space>:
    2726:	0e 94 85 13 	call	0x270a	; 0x270a <_ZN12OrangutanLCD21printFromProgramSpaceEPKc>
    272a:	08 95       	ret

0000272c <_ZN12OrangutanLCD7printInEPKc>:
    272c:	0e 94 6e 13 	call	0x26dc	; 0x26dc <_ZN12OrangutanLCD5printEPKc>
    2730:	08 95       	ret

00002732 <_ZN12OrangutanLCD5printEm>:
    2732:	aa e0       	ldi	r26, 0x0A	; 10
    2734:	b0 e0       	ldi	r27, 0x00	; 0
    2736:	ef e9       	ldi	r30, 0x9F	; 159
    2738:	f3 e1       	ldi	r31, 0x13	; 19
    273a:	0c 94 f9 21 	jmp	0x43f2	; 0x43f2 <__prologue_saves__+0x10>
    273e:	9b 01       	movw	r18, r22
    2740:	ac 01       	movw	r20, r24
    2742:	1a e0       	ldi	r17, 0x0A	; 10
    2744:	ea e0       	ldi	r30, 0x0A	; 10
    2746:	ce 2e       	mov	r12, r30
    2748:	d1 2c       	mov	r13, r1
    274a:	e1 2c       	mov	r14, r1
    274c:	f1 2c       	mov	r15, r1
    274e:	5e 01       	movw	r10, r28
    2750:	08 94       	sec
    2752:	a1 1c       	adc	r10, r1
    2754:	b1 1c       	adc	r11, r1
    2756:	02 2f       	mov	r16, r18
    2758:	ca 01       	movw	r24, r20
    275a:	b9 01       	movw	r22, r18
    275c:	a7 01       	movw	r20, r14
    275e:	96 01       	movw	r18, r12
    2760:	0e 94 b4 21 	call	0x4368	; 0x4368 <__udivmodsi4>
    2764:	11 50       	subi	r17, 0x01	; 1
    2766:	f5 01       	movw	r30, r10
    2768:	e1 0f       	add	r30, r17
    276a:	f1 1d       	adc	r31, r1
    276c:	00 5d       	subi	r16, 0xD0	; 208
    276e:	92 2f       	mov	r25, r18
    2770:	99 0f       	add	r25, r25
    2772:	89 2f       	mov	r24, r25
    2774:	88 0f       	add	r24, r24
    2776:	88 0f       	add	r24, r24
    2778:	89 0f       	add	r24, r25
    277a:	08 1b       	sub	r16, r24
    277c:	00 83       	st	Z, r16
    277e:	21 15       	cp	r18, r1
    2780:	31 05       	cpc	r19, r1
    2782:	41 05       	cpc	r20, r1
    2784:	51 05       	cpc	r21, r1
    2786:	39 f7       	brne	.-50     	; 0x2756 <_ZN12OrangutanLCD5printEm+0x24>
    2788:	08 c0       	rjmp	.+16     	; 0x279a <_ZN12OrangutanLCD5printEm+0x68>
    278a:	f6 01       	movw	r30, r12
    278c:	e1 0f       	add	r30, r17
    278e:	f1 1d       	adc	r31, r1
    2790:	80 81       	ld	r24, Z
    2792:	0e 94 bc 12 	call	0x2578	; 0x2578 <_ZN12OrangutanLCD9send_dataEh>
    2796:	1f 5f       	subi	r17, 0xFF	; 255
    2798:	04 c0       	rjmp	.+8      	; 0x27a2 <_ZN12OrangutanLCD5printEm+0x70>
    279a:	6e 01       	movw	r12, r28
    279c:	08 94       	sec
    279e:	c1 1c       	adc	r12, r1
    27a0:	d1 1c       	adc	r13, r1
    27a2:	1a 30       	cpi	r17, 0x0A	; 10
    27a4:	90 f3       	brcs	.-28     	; 0x278a <_ZN12OrangutanLCD5printEm+0x58>
    27a6:	2a 96       	adiw	r28, 0x0a	; 10
    27a8:	ea e0       	ldi	r30, 0x0A	; 10
    27aa:	0c 94 15 22 	jmp	0x442a	; 0x442a <__epilogue_restores__+0x10>

000027ae <_ZN12OrangutanLCD5printEl>:
    27ae:	ef 92       	push	r14
    27b0:	ff 92       	push	r15
    27b2:	0f 93       	push	r16
    27b4:	1f 93       	push	r17
    27b6:	7b 01       	movw	r14, r22
    27b8:	8c 01       	movw	r16, r24
    27ba:	97 ff       	sbrs	r25, 7
    27bc:	0b c0       	rjmp	.+22     	; 0x27d4 <_ZN12OrangutanLCD5printEl+0x26>
    27be:	10 95       	com	r17
    27c0:	00 95       	com	r16
    27c2:	f0 94       	com	r15
    27c4:	e0 94       	com	r14
    27c6:	e1 1c       	adc	r14, r1
    27c8:	f1 1c       	adc	r15, r1
    27ca:	01 1d       	adc	r16, r1
    27cc:	11 1d       	adc	r17, r1
    27ce:	8d e2       	ldi	r24, 0x2D	; 45
    27d0:	0e 94 bc 12 	call	0x2578	; 0x2578 <_ZN12OrangutanLCD9send_dataEh>
    27d4:	c8 01       	movw	r24, r16
    27d6:	b7 01       	movw	r22, r14
    27d8:	0e 94 99 13 	call	0x2732	; 0x2732 <_ZN12OrangutanLCD5printEm>
    27dc:	1f 91       	pop	r17
    27de:	0f 91       	pop	r16
    27e0:	ff 90       	pop	r15
    27e2:	ef 90       	pop	r14
    27e4:	08 95       	ret

000027e6 <print_long>:
    27e6:	0e 94 d7 13 	call	0x27ae	; 0x27ae <_ZN12OrangutanLCD5printEl>
    27ea:	08 95       	ret

000027ec <print_unsigned_long>:
    27ec:	0e 94 99 13 	call	0x2732	; 0x2732 <_ZN12OrangutanLCD5printEm>
    27f0:	08 95       	ret

000027f2 <_ZN12OrangutanLCD14printHexNibbleEh>:
    27f2:	8a 30       	cpi	r24, 0x0A	; 10
    27f4:	10 f4       	brcc	.+4      	; 0x27fa <_ZN12OrangutanLCD14printHexNibbleEh+0x8>
    27f6:	80 5d       	subi	r24, 0xD0	; 208
    27f8:	01 c0       	rjmp	.+2      	; 0x27fc <_ZN12OrangutanLCD14printHexNibbleEh+0xa>
    27fa:	89 5c       	subi	r24, 0xC9	; 201
    27fc:	0e 94 bc 12 	call	0x2578	; 0x2578 <_ZN12OrangutanLCD9send_dataEh>
    2800:	08 95       	ret

00002802 <_ZN12OrangutanLCD8printHexEh>:
    2802:	1f 93       	push	r17
    2804:	18 2f       	mov	r17, r24
    2806:	82 95       	swap	r24
    2808:	8f 70       	andi	r24, 0x0F	; 15
    280a:	0e 94 f9 13 	call	0x27f2	; 0x27f2 <_ZN12OrangutanLCD14printHexNibbleEh>
    280e:	81 2f       	mov	r24, r17
    2810:	8f 70       	andi	r24, 0x0F	; 15
    2812:	0e 94 f9 13 	call	0x27f2	; 0x27f2 <_ZN12OrangutanLCD14printHexNibbleEh>
    2816:	1f 91       	pop	r17
    2818:	08 95       	ret

0000281a <_ZN12OrangutanLCD8printHexEj>:
    281a:	1f 93       	push	r17
    281c:	18 2f       	mov	r17, r24
    281e:	89 2f       	mov	r24, r25
    2820:	0e 94 01 14 	call	0x2802	; 0x2802 <_ZN12OrangutanLCD8printHexEh>
    2824:	81 2f       	mov	r24, r17
    2826:	0e 94 01 14 	call	0x2802	; 0x2802 <_ZN12OrangutanLCD8printHexEh>
    282a:	1f 91       	pop	r17
    282c:	08 95       	ret

0000282e <print_hex>:
    282e:	0e 94 0d 14 	call	0x281a	; 0x281a <_ZN12OrangutanLCD8printHexEj>
    2832:	08 95       	ret

00002834 <print_hex_byte>:
    2834:	0e 94 01 14 	call	0x2802	; 0x2802 <_ZN12OrangutanLCD8printHexEh>
    2838:	08 95       	ret

0000283a <_ZN12OrangutanLCD11printBinaryEh>:
    283a:	ff 92       	push	r15
    283c:	0f 93       	push	r16
    283e:	1f 93       	push	r17
    2840:	f8 2e       	mov	r15, r24
    2842:	08 e0       	ldi	r16, 0x08	; 8
    2844:	10 e8       	ldi	r17, 0x80	; 128
    2846:	81 2f       	mov	r24, r17
    2848:	8f 21       	and	r24, r15
    284a:	11 f0       	breq	.+4      	; 0x2850 <_ZN12OrangutanLCD11printBinaryEh+0x16>
    284c:	81 e3       	ldi	r24, 0x31	; 49
    284e:	01 c0       	rjmp	.+2      	; 0x2852 <_ZN12OrangutanLCD11printBinaryEh+0x18>
    2850:	80 e3       	ldi	r24, 0x30	; 48
    2852:	0e 94 bc 12 	call	0x2578	; 0x2578 <_ZN12OrangutanLCD9send_dataEh>
    2856:	01 50       	subi	r16, 0x01	; 1
    2858:	11 f0       	breq	.+4      	; 0x285e <_ZN12OrangutanLCD11printBinaryEh+0x24>
    285a:	16 95       	lsr	r17
    285c:	f4 cf       	rjmp	.-24     	; 0x2846 <_ZN12OrangutanLCD11printBinaryEh+0xc>
    285e:	1f 91       	pop	r17
    2860:	0f 91       	pop	r16
    2862:	ff 90       	pop	r15
    2864:	08 95       	ret

00002866 <print_binary>:
    2866:	0e 94 1d 14 	call	0x283a	; 0x283a <_ZN12OrangutanLCD11printBinaryEh>
    286a:	08 95       	ret

0000286c <_ZN12OrangutanLCD6gotoXYEhh>:
    286c:	a5 e0       	ldi	r26, 0x05	; 5
    286e:	b0 e0       	ldi	r27, 0x00	; 0
    2870:	ec e3       	ldi	r30, 0x3C	; 60
    2872:	f4 e1       	ldi	r31, 0x14	; 20
    2874:	0c 94 00 22 	jmp	0x4400	; 0x4400 <__prologue_saves__+0x1e>
    2878:	18 2f       	mov	r17, r24
    287a:	80 e8       	ldi	r24, 0x80	; 128
    287c:	89 83       	std	Y+1, r24	; 0x01
    287e:	80 ec       	ldi	r24, 0xC0	; 192
    2880:	8a 83       	std	Y+2, r24	; 0x02
    2882:	84 e9       	ldi	r24, 0x94	; 148
    2884:	8b 83       	std	Y+3, r24	; 0x03
    2886:	84 ed       	ldi	r24, 0xD4	; 212
    2888:	8c 83       	std	Y+4, r24	; 0x04
    288a:	fe 01       	movw	r30, r28
    288c:	e6 0f       	add	r30, r22
    288e:	f1 1d       	adc	r31, r1
    2890:	81 81       	ldd	r24, Z+1	; 0x01
    2892:	81 0f       	add	r24, r17
    2894:	6d 83       	std	Y+5, r22	; 0x05
    2896:	0e 94 b7 12 	call	0x256e	; 0x256e <_ZN12OrangutanLCD8send_cmdEh>
    289a:	10 93 a4 02 	sts	0x02A4, r17
    289e:	6d 81       	ldd	r22, Y+5	; 0x05
    28a0:	60 93 a3 02 	sts	0x02A3, r22
    28a4:	25 96       	adiw	r28, 0x05	; 5
    28a6:	e3 e0       	ldi	r30, 0x03	; 3
    28a8:	0c 94 1c 22 	jmp	0x4438	; 0x4438 <__epilogue_restores__+0x1e>

000028ac <lcd_goto_xy>:
    28ac:	0e 94 36 14 	call	0x286c	; 0x286c <_ZN12OrangutanLCD6gotoXYEhh>
    28b0:	08 95       	ret

000028b2 <lcd_putchar>:
    28b2:	a0 e0       	ldi	r26, 0x00	; 0
    28b4:	b0 e0       	ldi	r27, 0x00	; 0
    28b6:	ef e5       	ldi	r30, 0x5F	; 95
    28b8:	f4 e1       	ldi	r31, 0x14	; 20
    28ba:	0c 94 fb 21 	jmp	0x43f6	; 0x43f6 <__prologue_saves__+0x14>
    28be:	d8 2e       	mov	r13, r24
    28c0:	80 91 a1 02 	lds	r24, 0x02A1
    28c4:	90 91 a2 02 	lds	r25, 0x02A2
    28c8:	00 97       	sbiw	r24, 0x00	; 0
    28ca:	09 f4       	brne	.+2      	; 0x28ce <lcd_putchar+0x1c>
    28cc:	fa c0       	rjmp	.+500    	; 0x2ac2 <lcd_putchar+0x210>
    28ce:	2d 2d       	mov	r18, r13
    28d0:	2a 30       	cpi	r18, 0x0A	; 10
    28d2:	09 f4       	brne	.+2      	; 0x28d6 <lcd_putchar+0x24>
    28d4:	43 c0       	rjmp	.+134    	; 0x295c <lcd_putchar+0xaa>
    28d6:	28 30       	cpi	r18, 0x08	; 8
    28d8:	c9 f4       	brne	.+50     	; 0x290c <lcd_putchar+0x5a>
    28da:	80 91 a4 02 	lds	r24, 0x02A4
    28de:	81 50       	subi	r24, 0x01	; 1
    28e0:	80 93 a4 02 	sts	0x02A4, r24
    28e4:	8f 3f       	cpi	r24, 0xFF	; 255
    28e6:	51 f4       	brne	.+20     	; 0x28fc <lcd_putchar+0x4a>
    28e8:	80 91 a3 02 	lds	r24, 0x02A3
    28ec:	81 50       	subi	r24, 0x01	; 1
    28ee:	80 93 a3 02 	sts	0x02A3, r24
    28f2:	80 91 83 01 	lds	r24, 0x0183
    28f6:	81 50       	subi	r24, 0x01	; 1
    28f8:	80 93 a4 02 	sts	0x02A4, r24
    28fc:	80 91 a3 02 	lds	r24, 0x02A3
    2900:	8f 3f       	cpi	r24, 0xFF	; 255
    2902:	09 f0       	breq	.+2      	; 0x2906 <lcd_putchar+0x54>
    2904:	d8 c0       	rjmp	.+432    	; 0x2ab6 <lcd_putchar+0x204>
    2906:	10 92 a3 02 	sts	0x02A3, r1
    290a:	d3 c0       	rjmp	.+422    	; 0x2ab2 <lcd_putchar+0x200>
    290c:	8d 2d       	mov	r24, r13
    290e:	0e 94 bc 12 	call	0x2578	; 0x2578 <_ZN12OrangutanLCD9send_dataEh>
    2912:	80 91 a3 02 	lds	r24, 0x02A3
    2916:	88 23       	and	r24, r24
    2918:	b9 f0       	breq	.+46     	; 0x2948 <lcd_putchar+0x96>
    291a:	90 e0       	ldi	r25, 0x00	; 0
    291c:	01 97       	sbiw	r24, 0x01	; 1
    291e:	40 91 83 01 	lds	r20, 0x0183
    2922:	50 e0       	ldi	r21, 0x00	; 0
    2924:	84 9f       	mul	r24, r20
    2926:	90 01       	movw	r18, r0
    2928:	85 9f       	mul	r24, r21
    292a:	30 0d       	add	r19, r0
    292c:	94 9f       	mul	r25, r20
    292e:	30 0d       	add	r19, r0
    2930:	11 24       	eor	r1, r1
    2932:	80 91 a4 02 	lds	r24, 0x02A4
    2936:	e0 91 a1 02 	lds	r30, 0x02A1
    293a:	f0 91 a2 02 	lds	r31, 0x02A2
    293e:	e2 0f       	add	r30, r18
    2940:	f3 1f       	adc	r31, r19
    2942:	e8 0f       	add	r30, r24
    2944:	f1 1d       	adc	r31, r1
    2946:	d0 82       	st	Z, r13
    2948:	80 91 a4 02 	lds	r24, 0x02A4
    294c:	8f 5f       	subi	r24, 0xFF	; 255
    294e:	80 93 a4 02 	sts	0x02A4, r24
    2952:	90 91 83 01 	lds	r25, 0x0183
    2956:	89 17       	cp	r24, r25
    2958:	09 f0       	breq	.+2      	; 0x295c <lcd_putchar+0xaa>
    295a:	b3 c0       	rjmp	.+358    	; 0x2ac2 <lcd_putchar+0x210>
    295c:	40 91 a3 02 	lds	r20, 0x02A3
    2960:	24 2f       	mov	r18, r20
    2962:	30 e0       	ldi	r19, 0x00	; 0
    2964:	80 91 82 01 	lds	r24, 0x0182
    2968:	90 e0       	ldi	r25, 0x00	; 0
    296a:	01 97       	sbiw	r24, 0x01	; 1
    296c:	28 17       	cp	r18, r24
    296e:	39 07       	cpc	r19, r25
    2970:	09 f0       	breq	.+2      	; 0x2974 <lcd_putchar+0xc2>
    2972:	9c c0       	rjmp	.+312    	; 0x2aac <lcd_putchar+0x1fa>
    2974:	c0 e0       	ldi	r28, 0x00	; 0
    2976:	d0 e0       	ldi	r29, 0x00	; 0
    2978:	41 c0       	rjmp	.+130    	; 0x29fc <lcd_putchar+0x14a>
    297a:	80 e0       	ldi	r24, 0x00	; 0
    297c:	6c 2f       	mov	r22, r28
    297e:	0e 94 36 14 	call	0x286c	; 0x286c <_ZN12OrangutanLCD6gotoXYEhh>
    2982:	cc 24       	eor	r12, r12
    2984:	8e 01       	movw	r16, r28
    2986:	0f 5f       	subi	r16, 0xFF	; 255
    2988:	1f 4f       	sbci	r17, 0xFF	; 255
    298a:	33 c0       	rjmp	.+102    	; 0x29f2 <lcd_putchar+0x140>
    298c:	ec 2c       	mov	r14, r12
    298e:	ff 24       	eor	r15, r15
    2990:	30 e0       	ldi	r19, 0x00	; 0
    2992:	c2 9f       	mul	r28, r18
    2994:	c0 01       	movw	r24, r0
    2996:	c3 9f       	mul	r28, r19
    2998:	90 0d       	add	r25, r0
    299a:	d2 9f       	mul	r29, r18
    299c:	90 0d       	add	r25, r0
    299e:	11 24       	eor	r1, r1
    29a0:	e0 91 a1 02 	lds	r30, 0x02A1
    29a4:	f0 91 a2 02 	lds	r31, 0x02A2
    29a8:	ee 0d       	add	r30, r14
    29aa:	ff 1d       	adc	r31, r15
    29ac:	e8 0f       	add	r30, r24
    29ae:	f9 1f       	adc	r31, r25
    29b0:	80 81       	ld	r24, Z
    29b2:	0e 94 bc 12 	call	0x2578	; 0x2578 <_ZN12OrangutanLCD9send_dataEh>
    29b6:	80 91 a1 02 	lds	r24, 0x02A1
    29ba:	90 91 a2 02 	lds	r25, 0x02A2
    29be:	20 91 83 01 	lds	r18, 0x0183
    29c2:	30 e0       	ldi	r19, 0x00	; 0
    29c4:	c2 9f       	mul	r28, r18
    29c6:	f0 01       	movw	r30, r0
    29c8:	c3 9f       	mul	r28, r19
    29ca:	f0 0d       	add	r31, r0
    29cc:	d2 9f       	mul	r29, r18
    29ce:	f0 0d       	add	r31, r0
    29d0:	11 24       	eor	r1, r1
    29d2:	8e 0d       	add	r24, r14
    29d4:	9f 1d       	adc	r25, r15
    29d6:	e8 0f       	add	r30, r24
    29d8:	f9 1f       	adc	r31, r25
    29da:	02 9f       	mul	r16, r18
    29dc:	d0 01       	movw	r26, r0
    29de:	03 9f       	mul	r16, r19
    29e0:	b0 0d       	add	r27, r0
    29e2:	12 9f       	mul	r17, r18
    29e4:	b0 0d       	add	r27, r0
    29e6:	11 24       	eor	r1, r1
    29e8:	a8 0f       	add	r26, r24
    29ea:	b9 1f       	adc	r27, r25
    29ec:	8c 91       	ld	r24, X
    29ee:	80 83       	st	Z, r24
    29f0:	c3 94       	inc	r12
    29f2:	20 91 83 01 	lds	r18, 0x0183
    29f6:	c2 16       	cp	r12, r18
    29f8:	48 f2       	brcs	.-110    	; 0x298c <lcd_putchar+0xda>
    29fa:	e8 01       	movw	r28, r16
    29fc:	60 91 82 01 	lds	r22, 0x0182
    2a00:	86 2f       	mov	r24, r22
    2a02:	90 e0       	ldi	r25, 0x00	; 0
    2a04:	02 97       	sbiw	r24, 0x02	; 2
    2a06:	c8 17       	cp	r28, r24
    2a08:	d9 07       	cpc	r29, r25
    2a0a:	0c f4       	brge	.+2      	; 0x2a0e <lcd_putchar+0x15c>
    2a0c:	b6 cf       	rjmp	.-148    	; 0x297a <lcd_putchar+0xc8>
    2a0e:	62 30       	cpi	r22, 0x02	; 2
    2a10:	e0 f1       	brcs	.+120    	; 0x2a8a <lcd_putchar+0x1d8>
    2a12:	62 50       	subi	r22, 0x02	; 2
    2a14:	80 e0       	ldi	r24, 0x00	; 0
    2a16:	0e 94 36 14 	call	0x286c	; 0x286c <_ZN12OrangutanLCD6gotoXYEhh>
    2a1a:	00 e0       	ldi	r16, 0x00	; 0
    2a1c:	10 e2       	ldi	r17, 0x20	; 32
    2a1e:	31 c0       	rjmp	.+98     	; 0x2a82 <lcd_putchar+0x1d0>
    2a20:	c0 2f       	mov	r28, r16
    2a22:	d0 e0       	ldi	r29, 0x00	; 0
    2a24:	80 91 82 01 	lds	r24, 0x0182
    2a28:	90 e0       	ldi	r25, 0x00	; 0
    2a2a:	02 97       	sbiw	r24, 0x02	; 2
    2a2c:	50 e0       	ldi	r21, 0x00	; 0
    2a2e:	84 9f       	mul	r24, r20
    2a30:	90 01       	movw	r18, r0
    2a32:	85 9f       	mul	r24, r21
    2a34:	30 0d       	add	r19, r0
    2a36:	94 9f       	mul	r25, r20
    2a38:	30 0d       	add	r19, r0
    2a3a:	11 24       	eor	r1, r1
    2a3c:	e0 91 a1 02 	lds	r30, 0x02A1
    2a40:	f0 91 a2 02 	lds	r31, 0x02A2
    2a44:	ec 0f       	add	r30, r28
    2a46:	fd 1f       	adc	r31, r29
    2a48:	e2 0f       	add	r30, r18
    2a4a:	f3 1f       	adc	r31, r19
    2a4c:	80 81       	ld	r24, Z
    2a4e:	0e 94 bc 12 	call	0x2578	; 0x2578 <_ZN12OrangutanLCD9send_dataEh>
    2a52:	80 91 82 01 	lds	r24, 0x0182
    2a56:	90 e0       	ldi	r25, 0x00	; 0
    2a58:	02 97       	sbiw	r24, 0x02	; 2
    2a5a:	40 91 83 01 	lds	r20, 0x0183
    2a5e:	50 e0       	ldi	r21, 0x00	; 0
    2a60:	84 9f       	mul	r24, r20
    2a62:	90 01       	movw	r18, r0
    2a64:	85 9f       	mul	r24, r21
    2a66:	30 0d       	add	r19, r0
    2a68:	94 9f       	mul	r25, r20
    2a6a:	30 0d       	add	r19, r0
    2a6c:	11 24       	eor	r1, r1
    2a6e:	e0 91 a1 02 	lds	r30, 0x02A1
    2a72:	f0 91 a2 02 	lds	r31, 0x02A2
    2a76:	ec 0f       	add	r30, r28
    2a78:	fd 1f       	adc	r31, r29
    2a7a:	e2 0f       	add	r30, r18
    2a7c:	f3 1f       	adc	r31, r19
    2a7e:	10 83       	st	Z, r17
    2a80:	0f 5f       	subi	r16, 0xFF	; 255
    2a82:	40 91 83 01 	lds	r20, 0x0183
    2a86:	04 17       	cp	r16, r20
    2a88:	58 f2       	brcs	.-106    	; 0x2a20 <lcd_putchar+0x16e>
    2a8a:	60 91 82 01 	lds	r22, 0x0182
    2a8e:	61 50       	subi	r22, 0x01	; 1
    2a90:	80 e0       	ldi	r24, 0x00	; 0
    2a92:	0e 94 36 14 	call	0x286c	; 0x286c <_ZN12OrangutanLCD6gotoXYEhh>
    2a96:	10 e0       	ldi	r17, 0x00	; 0
    2a98:	04 c0       	rjmp	.+8      	; 0x2aa2 <lcd_putchar+0x1f0>
    2a9a:	80 e2       	ldi	r24, 0x20	; 32
    2a9c:	0e 94 bc 12 	call	0x2578	; 0x2578 <_ZN12OrangutanLCD9send_dataEh>
    2aa0:	1f 5f       	subi	r17, 0xFF	; 255
    2aa2:	80 91 83 01 	lds	r24, 0x0183
    2aa6:	18 17       	cp	r17, r24
    2aa8:	c0 f3       	brcs	.-16     	; 0x2a9a <lcd_putchar+0x1e8>
    2aaa:	03 c0       	rjmp	.+6      	; 0x2ab2 <lcd_putchar+0x200>
    2aac:	4f 5f       	subi	r20, 0xFF	; 255
    2aae:	40 93 a3 02 	sts	0x02A3, r20
    2ab2:	10 92 a4 02 	sts	0x02A4, r1
    2ab6:	80 91 a4 02 	lds	r24, 0x02A4
    2aba:	60 91 a3 02 	lds	r22, 0x02A3
    2abe:	0e 94 36 14 	call	0x286c	; 0x286c <_ZN12OrangutanLCD6gotoXYEhh>
    2ac2:	2d 2d       	mov	r18, r13
    2ac4:	33 27       	eor	r19, r19
    2ac6:	27 fd       	sbrc	r18, 7
    2ac8:	30 95       	com	r19
    2aca:	c9 01       	movw	r24, r18
    2acc:	cd b7       	in	r28, 0x3d	; 61
    2ace:	de b7       	in	r29, 0x3e	; 62
    2ad0:	e8 e0       	ldi	r30, 0x08	; 8
    2ad2:	0c 94 17 22 	jmp	0x442e	; 0x442e <__epilogue_restores__+0x14>

00002ad6 <_ZN12OrangutanLCD10showCursorEh>:
    2ad6:	81 30       	cpi	r24, 0x01	; 1
    2ad8:	11 f4       	brne	.+4      	; 0x2ade <_ZN12OrangutanLCD10showCursorEh+0x8>
    2ada:	8f e0       	ldi	r24, 0x0F	; 15
    2adc:	01 c0       	rjmp	.+2      	; 0x2ae0 <_ZN12OrangutanLCD10showCursorEh+0xa>
    2ade:	8e e0       	ldi	r24, 0x0E	; 14
    2ae0:	0e 94 b7 12 	call	0x256e	; 0x256e <_ZN12OrangutanLCD8send_cmdEh>
    2ae4:	08 95       	ret

00002ae6 <lcd_show_cursor>:
    2ae6:	0e 94 6b 15 	call	0x2ad6	; 0x2ad6 <_ZN12OrangutanLCD10showCursorEh>
    2aea:	08 95       	ret

00002aec <_ZN12OrangutanLCD10hideCursorEv>:
    2aec:	8c e0       	ldi	r24, 0x0C	; 12
    2aee:	0e 94 b7 12 	call	0x256e	; 0x256e <_ZN12OrangutanLCD8send_cmdEh>
    2af2:	08 95       	ret

00002af4 <lcd_hide_cursor>:
    2af4:	0e 94 76 15 	call	0x2aec	; 0x2aec <_ZN12OrangutanLCD10hideCursorEv>
    2af8:	08 95       	ret

00002afa <_ZN12OrangutanLCD10moveCursorEhh>:
    2afa:	0f 93       	push	r16
    2afc:	1f 93       	push	r17
    2afe:	18 2f       	mov	r17, r24
    2b00:	06 2f       	mov	r16, r22
    2b02:	08 c0       	rjmp	.+16     	; 0x2b14 <_ZN12OrangutanLCD10moveCursorEhh+0x1a>
    2b04:	11 23       	and	r17, r17
    2b06:	11 f4       	brne	.+4      	; 0x2b0c <_ZN12OrangutanLCD10moveCursorEhh+0x12>
    2b08:	80 e1       	ldi	r24, 0x10	; 16
    2b0a:	01 c0       	rjmp	.+2      	; 0x2b0e <_ZN12OrangutanLCD10moveCursorEhh+0x14>
    2b0c:	84 e1       	ldi	r24, 0x14	; 20
    2b0e:	0e 94 b7 12 	call	0x256e	; 0x256e <_ZN12OrangutanLCD8send_cmdEh>
    2b12:	01 50       	subi	r16, 0x01	; 1
    2b14:	00 23       	and	r16, r16
    2b16:	b1 f7       	brne	.-20     	; 0x2b04 <_ZN12OrangutanLCD10moveCursorEhh+0xa>
    2b18:	1f 91       	pop	r17
    2b1a:	0f 91       	pop	r16
    2b1c:	08 95       	ret

00002b1e <lcd_move_cursor>:
    2b1e:	0e 94 7d 15 	call	0x2afa	; 0x2afa <_ZN12OrangutanLCD10moveCursorEhh>
    2b22:	08 95       	ret

00002b24 <_ZN12OrangutanLCD6scrollEhhj>:
    2b24:	0f 93       	push	r16
    2b26:	1f 93       	push	r17
    2b28:	cf 93       	push	r28
    2b2a:	df 93       	push	r29
    2b2c:	18 2f       	mov	r17, r24
    2b2e:	06 2f       	mov	r16, r22
    2b30:	ea 01       	movw	r28, r20
    2b32:	0b c0       	rjmp	.+22     	; 0x2b4a <_ZN12OrangutanLCD6scrollEhhj+0x26>
    2b34:	11 23       	and	r17, r17
    2b36:	11 f4       	brne	.+4      	; 0x2b3c <_ZN12OrangutanLCD6scrollEhhj+0x18>
    2b38:	88 e1       	ldi	r24, 0x18	; 24
    2b3a:	01 c0       	rjmp	.+2      	; 0x2b3e <_ZN12OrangutanLCD6scrollEhhj+0x1a>
    2b3c:	8c e1       	ldi	r24, 0x1C	; 28
    2b3e:	0e 94 b7 12 	call	0x256e	; 0x256e <_ZN12OrangutanLCD8send_cmdEh>
    2b42:	ce 01       	movw	r24, r28
    2b44:	0e 94 5a 19 	call	0x32b4	; 0x32b4 <delay_ms>
    2b48:	01 50       	subi	r16, 0x01	; 1
    2b4a:	00 23       	and	r16, r16
    2b4c:	99 f7       	brne	.-26     	; 0x2b34 <_ZN12OrangutanLCD6scrollEhhj+0x10>
    2b4e:	df 91       	pop	r29
    2b50:	cf 91       	pop	r28
    2b52:	1f 91       	pop	r17
    2b54:	0f 91       	pop	r16
    2b56:	08 95       	ret

00002b58 <lcd_scroll>:
    2b58:	0e 94 92 15 	call	0x2b24	; 0x2b24 <_ZN12OrangutanLCD6scrollEhhj>
    2b5c:	08 95       	ret

00002b5e <_ZN12OrangutanLCD10initPrintfEv>:
    2b5e:	80 91 a1 02 	lds	r24, 0x02A1
    2b62:	90 91 a2 02 	lds	r25, 0x02A2
    2b66:	00 97       	sbiw	r24, 0x00	; 0
    2b68:	11 f0       	breq	.+4      	; 0x2b6e <_ZN12OrangutanLCD10initPrintfEv+0x10>
    2b6a:	0e 94 c8 22 	call	0x4590	; 0x4590 <free>
    2b6e:	20 91 82 01 	lds	r18, 0x0182
    2b72:	30 e0       	ldi	r19, 0x00	; 0
    2b74:	21 50       	subi	r18, 0x01	; 1
    2b76:	30 40       	sbci	r19, 0x00	; 0
    2b78:	80 91 83 01 	lds	r24, 0x0183
    2b7c:	90 e0       	ldi	r25, 0x00	; 0
    2b7e:	ac 01       	movw	r20, r24
    2b80:	24 9f       	mul	r18, r20
    2b82:	c0 01       	movw	r24, r0
    2b84:	25 9f       	mul	r18, r21
    2b86:	90 0d       	add	r25, r0
    2b88:	34 9f       	mul	r19, r20
    2b8a:	90 0d       	add	r25, r0
    2b8c:	11 24       	eor	r1, r1
    2b8e:	0e 94 2e 22 	call	0x445c	; 0x445c <malloc>
    2b92:	90 93 a2 02 	sts	0x02A2, r25
    2b96:	80 93 a1 02 	sts	0x02A1, r24
    2b9a:	00 97       	sbiw	r24, 0x00	; 0
    2b9c:	21 f1       	breq	.+72     	; 0x2be6 <_ZN12OrangutanLCD10initPrintfEv+0x88>
    2b9e:	a0 e0       	ldi	r26, 0x00	; 0
    2ba0:	b0 e2       	ldi	r27, 0x20	; 32
    2ba2:	08 c0       	rjmp	.+16     	; 0x2bb4 <_ZN12OrangutanLCD10initPrintfEv+0x56>
    2ba4:	e0 91 a1 02 	lds	r30, 0x02A1
    2ba8:	f0 91 a2 02 	lds	r31, 0x02A2
    2bac:	e2 0f       	add	r30, r18
    2bae:	f3 1f       	adc	r31, r19
    2bb0:	b0 83       	st	Z, r27
    2bb2:	af 5f       	subi	r26, 0xFF	; 255
    2bb4:	2a 2f       	mov	r18, r26
    2bb6:	30 e0       	ldi	r19, 0x00	; 0
    2bb8:	80 91 82 01 	lds	r24, 0x0182
    2bbc:	90 e0       	ldi	r25, 0x00	; 0
    2bbe:	01 97       	sbiw	r24, 0x01	; 1
    2bc0:	60 91 83 01 	lds	r22, 0x0183
    2bc4:	70 e0       	ldi	r23, 0x00	; 0
    2bc6:	86 9f       	mul	r24, r22
    2bc8:	a0 01       	movw	r20, r0
    2bca:	87 9f       	mul	r24, r23
    2bcc:	50 0d       	add	r21, r0
    2bce:	96 9f       	mul	r25, r22
    2bd0:	50 0d       	add	r21, r0
    2bd2:	11 24       	eor	r1, r1
    2bd4:	24 17       	cp	r18, r20
    2bd6:	35 07       	cpc	r19, r21
    2bd8:	2c f3       	brlt	.-54     	; 0x2ba4 <_ZN12OrangutanLCD10initPrintfEv+0x46>
    2bda:	89 e5       	ldi	r24, 0x59	; 89
    2bdc:	94 e1       	ldi	r25, 0x14	; 20
    2bde:	64 e2       	ldi	r22, 0x24	; 36
    2be0:	72 e1       	ldi	r23, 0x12	; 18
    2be2:	0e 94 61 23 	call	0x46c2	; 0x46c2 <fdevopen>
    2be6:	08 95       	ret

00002be8 <lcd_init_printf>:
    2be8:	0e 94 af 15 	call	0x2b5e	; 0x2b5e <_ZN12OrangutanLCD10initPrintfEv>
    2bec:	08 95       	ret

00002bee <lcd_init_printf_with_dimensions>:
    2bee:	80 93 83 01 	sts	0x0183, r24
    2bf2:	60 93 82 01 	sts	0x0182, r22
    2bf6:	0e 94 af 15 	call	0x2b5e	; 0x2b5e <_ZN12OrangutanLCD10initPrintfEv>
    2bfa:	08 95       	ret

00002bfc <_ZN12OrangutanLCD10initPrintfEhh>:
    2bfc:	80 93 83 01 	sts	0x0183, r24
    2c00:	60 93 82 01 	sts	0x0182, r22
    2c04:	0e 94 af 15 	call	0x2b5e	; 0x2b5e <_ZN12OrangutanLCD10initPrintfEv>
    2c08:	08 95       	ret

00002c0a <_ZN16OrangutanDigital14getIORegistersEP8IOStructh>:
    2c0a:	fc 01       	movw	r30, r24
    2c0c:	11 82       	std	Z+1, r1	; 0x01
    2c0e:	10 82       	st	Z, r1
    2c10:	13 82       	std	Z+3, r1	; 0x03
    2c12:	12 82       	std	Z+2, r1	; 0x02
    2c14:	15 82       	std	Z+5, r1	; 0x05
    2c16:	14 82       	std	Z+4, r1	; 0x04
    2c18:	16 82       	std	Z+6, r1	; 0x06
    2c1a:	68 30       	cpi	r22, 0x08	; 8
    2c1c:	68 f4       	brcc	.+26     	; 0x2c38 <_ZN16OrangutanDigital14getIORegistersEP8IOStructh+0x2e>
    2c1e:	89 e2       	ldi	r24, 0x29	; 41
    2c20:	90 e0       	ldi	r25, 0x00	; 0
    2c22:	91 83       	std	Z+1, r25	; 0x01
    2c24:	80 83       	st	Z, r24
    2c26:	8b e2       	ldi	r24, 0x2B	; 43
    2c28:	90 e0       	ldi	r25, 0x00	; 0
    2c2a:	93 83       	std	Z+3, r25	; 0x03
    2c2c:	82 83       	std	Z+2, r24	; 0x02
    2c2e:	8a e2       	ldi	r24, 0x2A	; 42
    2c30:	90 e0       	ldi	r25, 0x00	; 0
    2c32:	95 83       	std	Z+5, r25	; 0x05
    2c34:	84 83       	std	Z+4, r24	; 0x04
    2c36:	11 c0       	rjmp	.+34     	; 0x2c5a <_ZN16OrangutanDigital14getIORegistersEP8IOStructh+0x50>
    2c38:	6e 30       	cpi	r22, 0x0E	; 14
    2c3a:	c0 f4       	brcc	.+48     	; 0x2c6c <_ZN16OrangutanDigital14getIORegistersEP8IOStructh+0x62>
    2c3c:	83 e2       	ldi	r24, 0x23	; 35
    2c3e:	90 e0       	ldi	r25, 0x00	; 0
    2c40:	91 83       	std	Z+1, r25	; 0x01
    2c42:	80 83       	st	Z, r24
    2c44:	85 e2       	ldi	r24, 0x25	; 37
    2c46:	90 e0       	ldi	r25, 0x00	; 0
    2c48:	93 83       	std	Z+3, r25	; 0x03
    2c4a:	82 83       	std	Z+2, r24	; 0x02
    2c4c:	84 e2       	ldi	r24, 0x24	; 36
    2c4e:	90 e0       	ldi	r25, 0x00	; 0
    2c50:	95 83       	std	Z+5, r25	; 0x05
    2c52:	84 83       	std	Z+4, r24	; 0x04
    2c54:	70 e0       	ldi	r23, 0x00	; 0
    2c56:	68 50       	subi	r22, 0x08	; 8
    2c58:	70 40       	sbci	r23, 0x00	; 0
    2c5a:	81 e0       	ldi	r24, 0x01	; 1
    2c5c:	90 e0       	ldi	r25, 0x00	; 0
    2c5e:	02 c0       	rjmp	.+4      	; 0x2c64 <_ZN16OrangutanDigital14getIORegistersEP8IOStructh+0x5a>
    2c60:	88 0f       	add	r24, r24
    2c62:	99 1f       	adc	r25, r25
    2c64:	6a 95       	dec	r22
    2c66:	e2 f7       	brpl	.-8      	; 0x2c60 <_ZN16OrangutanDigital14getIORegistersEP8IOStructh+0x56>
    2c68:	86 83       	std	Z+6, r24	; 0x06
    2c6a:	08 95       	ret
    2c6c:	65 31       	cpi	r22, 0x15	; 21
    2c6e:	b8 f4       	brcc	.+46     	; 0x2c9e <_ZN16OrangutanDigital14getIORegistersEP8IOStructh+0x94>
    2c70:	86 e2       	ldi	r24, 0x26	; 38
    2c72:	90 e0       	ldi	r25, 0x00	; 0
    2c74:	91 83       	std	Z+1, r25	; 0x01
    2c76:	80 83       	st	Z, r24
    2c78:	88 e2       	ldi	r24, 0x28	; 40
    2c7a:	90 e0       	ldi	r25, 0x00	; 0
    2c7c:	93 83       	std	Z+3, r25	; 0x03
    2c7e:	82 83       	std	Z+2, r24	; 0x02
    2c80:	87 e2       	ldi	r24, 0x27	; 39
    2c82:	90 e0       	ldi	r25, 0x00	; 0
    2c84:	95 83       	std	Z+5, r25	; 0x05
    2c86:	84 83       	std	Z+4, r24	; 0x04
    2c88:	70 e0       	ldi	r23, 0x00	; 0
    2c8a:	6e 50       	subi	r22, 0x0E	; 14
    2c8c:	70 40       	sbci	r23, 0x00	; 0
    2c8e:	81 e0       	ldi	r24, 0x01	; 1
    2c90:	90 e0       	ldi	r25, 0x00	; 0
    2c92:	02 c0       	rjmp	.+4      	; 0x2c98 <_ZN16OrangutanDigital14getIORegistersEP8IOStructh+0x8e>
    2c94:	88 0f       	add	r24, r24
    2c96:	99 1f       	adc	r25, r25
    2c98:	6a 95       	dec	r22
    2c9a:	e2 f7       	brpl	.-8      	; 0x2c94 <_ZN16OrangutanDigital14getIORegistersEP8IOStructh+0x8a>
    2c9c:	86 83       	std	Z+6, r24	; 0x06
    2c9e:	08 95       	ret

00002ca0 <_ZN16OrangutanDigital16setDataDirectionEP8IOStructh>:
    2ca0:	fc 01       	movw	r30, r24
    2ca2:	a4 81       	ldd	r26, Z+4	; 0x04
    2ca4:	b5 81       	ldd	r27, Z+5	; 0x05
    2ca6:	86 81       	ldd	r24, Z+6	; 0x06
    2ca8:	66 23       	and	r22, r22
    2caa:	21 f0       	breq	.+8      	; 0x2cb4 <_ZN16OrangutanDigital16setDataDirectionEP8IOStructh+0x14>
    2cac:	9c 91       	ld	r25, X
    2cae:	98 2b       	or	r25, r24
    2cb0:	9c 93       	st	X, r25
    2cb2:	08 95       	ret
    2cb4:	9c 91       	ld	r25, X
    2cb6:	80 95       	com	r24
    2cb8:	89 23       	and	r24, r25
    2cba:	8c 93       	st	X, r24
    2cbc:	08 95       	ret

00002cbe <_ZN16OrangutanDigital14setOutputValueEP8IOStructh>:
    2cbe:	fc 01       	movw	r30, r24
    2cc0:	6f 3f       	cpi	r22, 0xFF	; 255
    2cc2:	31 f4       	brne	.+12     	; 0x2cd0 <_ZN16OrangutanDigital14setOutputValueEP8IOStructh+0x12>
    2cc4:	a2 81       	ldd	r26, Z+2	; 0x02
    2cc6:	b3 81       	ldd	r27, Z+3	; 0x03
    2cc8:	8c 91       	ld	r24, X
    2cca:	96 81       	ldd	r25, Z+6	; 0x06
    2ccc:	89 27       	eor	r24, r25
    2cce:	0c c0       	rjmp	.+24     	; 0x2ce8 <_ZN16OrangutanDigital14setOutputValueEP8IOStructh+0x2a>
    2cd0:	a2 81       	ldd	r26, Z+2	; 0x02
    2cd2:	b3 81       	ldd	r27, Z+3	; 0x03
    2cd4:	86 81       	ldd	r24, Z+6	; 0x06
    2cd6:	66 23       	and	r22, r22
    2cd8:	21 f0       	breq	.+8      	; 0x2ce2 <_ZN16OrangutanDigital14setOutputValueEP8IOStructh+0x24>
    2cda:	9c 91       	ld	r25, X
    2cdc:	98 2b       	or	r25, r24
    2cde:	9c 93       	st	X, r25
    2ce0:	08 95       	ret
    2ce2:	9c 91       	ld	r25, X
    2ce4:	80 95       	com	r24
    2ce6:	89 23       	and	r24, r25
    2ce8:	8c 93       	st	X, r24
    2cea:	08 95       	ret

00002cec <_ZN16OrangutanDigital9setOutputEhh>:
    2cec:	a7 e0       	ldi	r26, 0x07	; 7
    2cee:	b0 e0       	ldi	r27, 0x00	; 0
    2cf0:	ec e7       	ldi	r30, 0x7C	; 124
    2cf2:	f6 e1       	ldi	r31, 0x16	; 22
    2cf4:	0c 94 fe 21 	jmp	0x43fc	; 0x43fc <__prologue_saves__+0x1a>
    2cf8:	28 2f       	mov	r18, r24
    2cfa:	f6 2e       	mov	r15, r22
    2cfc:	8e 01       	movw	r16, r28
    2cfe:	0f 5f       	subi	r16, 0xFF	; 255
    2d00:	1f 4f       	sbci	r17, 0xFF	; 255
    2d02:	c8 01       	movw	r24, r16
    2d04:	62 2f       	mov	r22, r18
    2d06:	0e 94 05 16 	call	0x2c0a	; 0x2c0a <_ZN16OrangutanDigital14getIORegistersEP8IOStructh>
    2d0a:	c8 01       	movw	r24, r16
    2d0c:	6f 2d       	mov	r22, r15
    2d0e:	0e 94 5f 16 	call	0x2cbe	; 0x2cbe <_ZN16OrangutanDigital14setOutputValueEP8IOStructh>
    2d12:	c8 01       	movw	r24, r16
    2d14:	61 e0       	ldi	r22, 0x01	; 1
    2d16:	0e 94 50 16 	call	0x2ca0	; 0x2ca0 <_ZN16OrangutanDigital16setDataDirectionEP8IOStructh>
    2d1a:	27 96       	adiw	r28, 0x07	; 7
    2d1c:	e5 e0       	ldi	r30, 0x05	; 5
    2d1e:	0c 94 1a 22 	jmp	0x4434	; 0x4434 <__epilogue_restores__+0x1a>

00002d22 <_ZN15OrangutanMotorsC1Ev>:
    2d22:	08 95       	ret

00002d24 <_ZN15OrangutanMotors5init2Ev>:
    2d24:	e0 eb       	ldi	r30, 0xB0	; 176
    2d26:	f0 e0       	ldi	r31, 0x00	; 0
    2d28:	83 ef       	ldi	r24, 0xF3	; 243
    2d2a:	80 83       	st	Z, r24
    2d2c:	80 81       	ld	r24, Z
    2d2e:	84 bd       	out	0x24, r24	; 36
    2d30:	e1 eb       	ldi	r30, 0xB1	; 177
    2d32:	f0 e0       	ldi	r31, 0x00	; 0
    2d34:	82 e0       	ldi	r24, 0x02	; 2
    2d36:	80 83       	st	Z, r24
    2d38:	80 81       	ld	r24, Z
    2d3a:	85 bd       	out	0x25, r24	; 37
    2d3c:	e4 eb       	ldi	r30, 0xB4	; 180
    2d3e:	f0 e0       	ldi	r31, 0x00	; 0
    2d40:	10 82       	st	Z, r1
    2d42:	80 81       	ld	r24, Z
    2d44:	e3 eb       	ldi	r30, 0xB3	; 179
    2d46:	f0 e0       	ldi	r31, 0x00	; 0
    2d48:	80 83       	st	Z, r24
    2d4a:	80 81       	ld	r24, Z
    2d4c:	88 bd       	out	0x28, r24	; 40
    2d4e:	88 b5       	in	r24, 0x28	; 40
    2d50:	87 bd       	out	0x27, r24	; 39
    2d52:	86 e0       	ldi	r24, 0x06	; 6
    2d54:	60 e0       	ldi	r22, 0x00	; 0
    2d56:	0e 94 76 16 	call	0x2cec	; 0x2cec <_ZN16OrangutanDigital9setOutputEhh>
    2d5a:	85 e0       	ldi	r24, 0x05	; 5
    2d5c:	60 e0       	ldi	r22, 0x00	; 0
    2d5e:	0e 94 76 16 	call	0x2cec	; 0x2cec <_ZN16OrangutanDigital9setOutputEhh>
    2d62:	8b e0       	ldi	r24, 0x0B	; 11
    2d64:	60 e0       	ldi	r22, 0x00	; 0
    2d66:	0e 94 76 16 	call	0x2cec	; 0x2cec <_ZN16OrangutanDigital9setOutputEhh>
    2d6a:	83 e0       	ldi	r24, 0x03	; 3
    2d6c:	60 e0       	ldi	r22, 0x00	; 0
    2d6e:	0e 94 76 16 	call	0x2cec	; 0x2cec <_ZN16OrangutanDigital9setOutputEhh>
    2d72:	08 95       	ret

00002d74 <_ZN15OrangutanMotors4initEv>:
    2d74:	80 91 aa 02 	lds	r24, 0x02AA
    2d78:	88 23       	and	r24, r24
    2d7a:	29 f4       	brne	.+10     	; 0x2d86 <_ZN15OrangutanMotors4initEv+0x12>
    2d7c:	81 e0       	ldi	r24, 0x01	; 1
    2d7e:	80 93 aa 02 	sts	0x02AA, r24
    2d82:	0e 94 92 16 	call	0x2d24	; 0x2d24 <_ZN15OrangutanMotors5init2Ev>
    2d86:	08 95       	ret

00002d88 <_ZN15OrangutanMotors10setM1SpeedEi>:
    2d88:	cf 93       	push	r28
    2d8a:	df 93       	push	r29
    2d8c:	ec 01       	movw	r28, r24
    2d8e:	0e 94 ba 16 	call	0x2d74	; 0x2d74 <_ZN15OrangutanMotors4initEv>
    2d92:	d7 ff       	sbrs	r29, 7
    2d94:	05 c0       	rjmp	.+10     	; 0x2da0 <_ZN15OrangutanMotors10setM1SpeedEi+0x18>
    2d96:	d0 95       	com	r29
    2d98:	c1 95       	neg	r28
    2d9a:	df 4f       	sbci	r29, 0xFF	; 255
    2d9c:	81 e0       	ldi	r24, 0x01	; 1
    2d9e:	01 c0       	rjmp	.+2      	; 0x2da2 <_ZN15OrangutanMotors10setM1SpeedEi+0x1a>
    2da0:	80 e0       	ldi	r24, 0x00	; 0
    2da2:	cf 3f       	cpi	r28, 0xFF	; 255
    2da4:	d1 05       	cpc	r29, r1
    2da6:	19 f0       	breq	.+6      	; 0x2dae <_ZN15OrangutanMotors10setM1SpeedEi+0x26>
    2da8:	14 f0       	brlt	.+4      	; 0x2dae <_ZN15OrangutanMotors10setM1SpeedEi+0x26>
    2daa:	cf ef       	ldi	r28, 0xFF	; 255
    2dac:	d0 e0       	ldi	r29, 0x00	; 0
    2dae:	88 23       	and	r24, r24
    2db0:	19 f0       	breq	.+6      	; 0x2db8 <_ZN15OrangutanMotors10setM1SpeedEi+0x30>
    2db2:	18 bc       	out	0x28, r1	; 40
    2db4:	c7 bd       	out	0x27, r28	; 39
    2db6:	02 c0       	rjmp	.+4      	; 0x2dbc <_ZN15OrangutanMotors10setM1SpeedEi+0x34>
    2db8:	c8 bd       	out	0x28, r28	; 40
    2dba:	17 bc       	out	0x27, r1	; 39
    2dbc:	df 91       	pop	r29
    2dbe:	cf 91       	pop	r28
    2dc0:	08 95       	ret

00002dc2 <set_m1_speed>:
    2dc2:	0e 94 c4 16 	call	0x2d88	; 0x2d88 <_ZN15OrangutanMotors10setM1SpeedEi>
    2dc6:	08 95       	ret

00002dc8 <_ZN15OrangutanMotors10setM2SpeedEi>:
    2dc8:	cf 93       	push	r28
    2dca:	df 93       	push	r29
    2dcc:	ec 01       	movw	r28, r24
    2dce:	0e 94 ba 16 	call	0x2d74	; 0x2d74 <_ZN15OrangutanMotors4initEv>
    2dd2:	d7 ff       	sbrs	r29, 7
    2dd4:	05 c0       	rjmp	.+10     	; 0x2de0 <_ZN15OrangutanMotors10setM2SpeedEi+0x18>
    2dd6:	d0 95       	com	r29
    2dd8:	c1 95       	neg	r28
    2dda:	df 4f       	sbci	r29, 0xFF	; 255
    2ddc:	81 e0       	ldi	r24, 0x01	; 1
    2dde:	01 c0       	rjmp	.+2      	; 0x2de2 <_ZN15OrangutanMotors10setM2SpeedEi+0x1a>
    2de0:	80 e0       	ldi	r24, 0x00	; 0
    2de2:	cf 3f       	cpi	r28, 0xFF	; 255
    2de4:	d1 05       	cpc	r29, r1
    2de6:	19 f0       	breq	.+6      	; 0x2dee <_ZN15OrangutanMotors10setM2SpeedEi+0x26>
    2de8:	14 f0       	brlt	.+4      	; 0x2dee <_ZN15OrangutanMotors10setM2SpeedEi+0x26>
    2dea:	cf ef       	ldi	r28, 0xFF	; 255
    2dec:	d0 e0       	ldi	r29, 0x00	; 0
    2dee:	88 23       	and	r24, r24
    2df0:	29 f0       	breq	.+10     	; 0x2dfc <_ZN15OrangutanMotors10setM2SpeedEi+0x34>
    2df2:	10 92 b4 00 	sts	0x00B4, r1
    2df6:	c0 93 b3 00 	sts	0x00B3, r28
    2dfa:	04 c0       	rjmp	.+8      	; 0x2e04 <_ZN15OrangutanMotors10setM2SpeedEi+0x3c>
    2dfc:	c0 93 b4 00 	sts	0x00B4, r28
    2e00:	10 92 b3 00 	sts	0x00B3, r1
    2e04:	df 91       	pop	r29
    2e06:	cf 91       	pop	r28
    2e08:	08 95       	ret

00002e0a <set_m2_speed>:
    2e0a:	0e 94 e4 16 	call	0x2dc8	; 0x2dc8 <_ZN15OrangutanMotors10setM2SpeedEi>
    2e0e:	08 95       	ret

00002e10 <_ZN15OrangutanMotors9setSpeedsEii>:
    2e10:	cf 93       	push	r28
    2e12:	df 93       	push	r29
    2e14:	eb 01       	movw	r28, r22
    2e16:	0e 94 c4 16 	call	0x2d88	; 0x2d88 <_ZN15OrangutanMotors10setM1SpeedEi>
    2e1a:	ce 01       	movw	r24, r28
    2e1c:	0e 94 e4 16 	call	0x2dc8	; 0x2dc8 <_ZN15OrangutanMotors10setM2SpeedEi>
    2e20:	df 91       	pop	r29
    2e22:	cf 91       	pop	r28
    2e24:	08 95       	ret

00002e26 <set_motors>:
    2e26:	0e 94 08 17 	call	0x2e10	; 0x2e10 <_ZN15OrangutanMotors9setSpeedsEii>
    2e2a:	08 95       	ret

00002e2c <_ZN20OrangutanPushbuttonsC1Ev>:
    2e2c:	08 95       	ret

00002e2e <_ZN20OrangutanPushbuttons5init2Ev>:
    2e2e:	84 b1       	in	r24, 0x04	; 4
    2e30:	8d 7c       	andi	r24, 0xCD	; 205
    2e32:	84 b9       	out	0x04, r24	; 4
    2e34:	85 b1       	in	r24, 0x05	; 5
    2e36:	82 63       	ori	r24, 0x32	; 50
    2e38:	85 b9       	out	0x05, r24	; 5
    2e3a:	85 e0       	ldi	r24, 0x05	; 5
    2e3c:	90 e0       	ldi	r25, 0x00	; 0
    2e3e:	6f 93       	push	r22
    2e40:	64 e0       	ldi	r22, 0x04	; 4
    2e42:	6a 95       	dec	r22
    2e44:	f1 f7       	brne	.-4      	; 0x2e42 <_ZN20OrangutanPushbuttons5init2Ev+0x14>
    2e46:	6f 91       	pop	r22
    2e48:	01 97       	sbiw	r24, 0x01	; 1
    2e4a:	c9 f7       	brne	.-14     	; 0x2e3e <_ZN20OrangutanPushbuttons5init2Ev+0x10>
    2e4c:	08 95       	ret

00002e4e <_ZN20OrangutanPushbuttons4initEv>:
    2e4e:	80 91 ab 02 	lds	r24, 0x02AB
    2e52:	88 23       	and	r24, r24
    2e54:	29 f4       	brne	.+10     	; 0x2e60 <_ZN20OrangutanPushbuttons4initEv+0x12>
    2e56:	81 e0       	ldi	r24, 0x01	; 1
    2e58:	80 93 ab 02 	sts	0x02AB, r24
    2e5c:	0e 94 17 17 	call	0x2e2e	; 0x2e2e <_ZN20OrangutanPushbuttons5init2Ev>
    2e60:	08 95       	ret

00002e62 <_ZN20OrangutanPushbuttons12waitForPressEh>:
    2e62:	1f 93       	push	r17
    2e64:	cf 93       	push	r28
    2e66:	df 93       	push	r29
    2e68:	18 2f       	mov	r17, r24
    2e6a:	0e 94 27 17 	call	0x2e4e	; 0x2e4e <_ZN20OrangutanPushbuttons4initEv>
    2e6e:	c1 2f       	mov	r28, r17
    2e70:	d0 e0       	ldi	r29, 0x00	; 0
    2e72:	23 b1       	in	r18, 0x03	; 3
    2e74:	30 e0       	ldi	r19, 0x00	; 0
    2e76:	20 95       	com	r18
    2e78:	30 95       	com	r19
    2e7a:	2c 23       	and	r18, r28
    2e7c:	3d 23       	and	r19, r29
    2e7e:	21 15       	cp	r18, r1
    2e80:	31 05       	cpc	r19, r1
    2e82:	b9 f3       	breq	.-18     	; 0x2e72 <_ZN20OrangutanPushbuttons12waitForPressEh+0x10>
    2e84:	8a e0       	ldi	r24, 0x0A	; 10
    2e86:	90 e0       	ldi	r25, 0x00	; 0
    2e88:	0e 94 5a 19 	call	0x32b4	; 0x32b4 <delay_ms>
    2e8c:	23 b1       	in	r18, 0x03	; 3
    2e8e:	30 e0       	ldi	r19, 0x00	; 0
    2e90:	20 95       	com	r18
    2e92:	30 95       	com	r19
    2e94:	2c 23       	and	r18, r28
    2e96:	3d 23       	and	r19, r29
    2e98:	21 15       	cp	r18, r1
    2e9a:	31 05       	cpc	r19, r1
    2e9c:	51 f3       	breq	.-44     	; 0x2e72 <_ZN20OrangutanPushbuttons12waitForPressEh+0x10>
    2e9e:	83 b1       	in	r24, 0x03	; 3
    2ea0:	80 95       	com	r24
    2ea2:	81 23       	and	r24, r17
    2ea4:	df 91       	pop	r29
    2ea6:	cf 91       	pop	r28
    2ea8:	1f 91       	pop	r17
    2eaa:	08 95       	ret

00002eac <wait_for_button_press>:
    2eac:	0e 94 31 17 	call	0x2e62	; 0x2e62 <_ZN20OrangutanPushbuttons12waitForPressEh>
    2eb0:	08 95       	ret

00002eb2 <_ZN20OrangutanPushbuttons14waitForReleaseEh>:
    2eb2:	1f 93       	push	r17
    2eb4:	18 2f       	mov	r17, r24
    2eb6:	0e 94 27 17 	call	0x2e4e	; 0x2e4e <_ZN20OrangutanPushbuttons4initEv>
    2eba:	83 b1       	in	r24, 0x03	; 3
    2ebc:	81 23       	and	r24, r17
    2ebe:	e9 f3       	breq	.-6      	; 0x2eba <_ZN20OrangutanPushbuttons14waitForReleaseEh+0x8>
    2ec0:	8a e0       	ldi	r24, 0x0A	; 10
    2ec2:	90 e0       	ldi	r25, 0x00	; 0
    2ec4:	0e 94 5a 19 	call	0x32b4	; 0x32b4 <delay_ms>
    2ec8:	83 b1       	in	r24, 0x03	; 3
    2eca:	81 23       	and	r24, r17
    2ecc:	b1 f3       	breq	.-20     	; 0x2eba <_ZN20OrangutanPushbuttons14waitForReleaseEh+0x8>
    2ece:	83 b1       	in	r24, 0x03	; 3
    2ed0:	81 23       	and	r24, r17
    2ed2:	1f 91       	pop	r17
    2ed4:	08 95       	ret

00002ed6 <wait_for_button_release>:
    2ed6:	0e 94 59 17 	call	0x2eb2	; 0x2eb2 <_ZN20OrangutanPushbuttons14waitForReleaseEh>
    2eda:	08 95       	ret

00002edc <_ZN20OrangutanPushbuttons13waitForButtonEh>:
    2edc:	1f 93       	push	r17
    2ede:	0e 94 31 17 	call	0x2e62	; 0x2e62 <_ZN20OrangutanPushbuttons12waitForPressEh>
    2ee2:	18 2f       	mov	r17, r24
    2ee4:	0e 94 59 17 	call	0x2eb2	; 0x2eb2 <_ZN20OrangutanPushbuttons14waitForReleaseEh>
    2ee8:	81 2f       	mov	r24, r17
    2eea:	1f 91       	pop	r17
    2eec:	08 95       	ret

00002eee <wait_for_button>:
    2eee:	0e 94 6e 17 	call	0x2edc	; 0x2edc <_ZN20OrangutanPushbuttons13waitForButtonEh>
    2ef2:	08 95       	ret

00002ef4 <_ZN20OrangutanPushbuttons9isPressedEh>:
    2ef4:	a1 e0       	ldi	r26, 0x01	; 1
    2ef6:	b0 e0       	ldi	r27, 0x00	; 0
    2ef8:	e0 e8       	ldi	r30, 0x80	; 128
    2efa:	f7 e1       	ldi	r31, 0x17	; 23
    2efc:	0c 94 01 22 	jmp	0x4402	; 0x4402 <__prologue_saves__+0x20>
    2f00:	89 83       	std	Y+1, r24	; 0x01
    2f02:	0e 94 27 17 	call	0x2e4e	; 0x2e4e <_ZN20OrangutanPushbuttons4initEv>
    2f06:	93 b1       	in	r25, 0x03	; 3
    2f08:	90 95       	com	r25
    2f0a:	89 81       	ldd	r24, Y+1	; 0x01
    2f0c:	89 23       	and	r24, r25
    2f0e:	21 96       	adiw	r28, 0x01	; 1
    2f10:	e2 e0       	ldi	r30, 0x02	; 2
    2f12:	0c 94 1d 22 	jmp	0x443a	; 0x443a <__epilogue_restores__+0x20>

00002f16 <button_is_pressed>:
    2f16:	0e 94 7a 17 	call	0x2ef4	; 0x2ef4 <_ZN20OrangutanPushbuttons9isPressedEh>
    2f1a:	08 95       	ret

00002f1c <_ZN20OrangutanPushbuttons23getSingleDebouncedPressEh>:
    2f1c:	bf 92       	push	r11
    2f1e:	cf 92       	push	r12
    2f20:	df 92       	push	r13
    2f22:	ef 92       	push	r14
    2f24:	ff 92       	push	r15
    2f26:	0f 93       	push	r16
    2f28:	1f 93       	push	r17
    2f2a:	b8 2e       	mov	r11, r24
    2f2c:	c3 b0       	in	r12, 0x03	; 3
    2f2e:	dc 2c       	mov	r13, r12
    2f30:	d0 94       	com	r13
    2f32:	0e 94 94 19 	call	0x3328	; 0x3328 <get_ms>
    2f36:	7b 01       	movw	r14, r22
    2f38:	8c 01       	movw	r16, r24
    2f3a:	0e 94 27 17 	call	0x2e4e	; 0x2e4e <_ZN20OrangutanPushbuttons4initEv>
    2f3e:	80 91 b7 02 	lds	r24, 0x02B7
    2f42:	81 30       	cpi	r24, 0x01	; 1
    2f44:	21 f1       	breq	.+72     	; 0x2f8e <_ZN20OrangutanPushbuttons23getSingleDebouncedPressEh+0x72>
    2f46:	81 30       	cpi	r24, 0x01	; 1
    2f48:	38 f0       	brcs	.+14     	; 0x2f58 <_ZN20OrangutanPushbuttons23getSingleDebouncedPressEh+0x3c>
    2f4a:	82 30       	cpi	r24, 0x02	; 2
    2f4c:	09 f4       	brne	.+2      	; 0x2f50 <_ZN20OrangutanPushbuttons23getSingleDebouncedPressEh+0x34>
    2f4e:	45 c0       	rjmp	.+138    	; 0x2fda <_ZN20OrangutanPushbuttons23getSingleDebouncedPressEh+0xbe>
    2f50:	83 30       	cpi	r24, 0x03	; 3
    2f52:	09 f0       	breq	.+2      	; 0x2f56 <_ZN20OrangutanPushbuttons23getSingleDebouncedPressEh+0x3a>
    2f54:	81 c0       	rjmp	.+258    	; 0x3058 <_ZN20OrangutanPushbuttons23getSingleDebouncedPressEh+0x13c>
    2f56:	63 c0       	rjmp	.+198    	; 0x301e <_ZN20OrangutanPushbuttons23getSingleDebouncedPressEh+0x102>
    2f58:	2b 2d       	mov	r18, r11
    2f5a:	30 e0       	ldi	r19, 0x00	; 0
    2f5c:	4d 2d       	mov	r20, r13
    2f5e:	50 e0       	ldi	r21, 0x00	; 0
    2f60:	40 95       	com	r20
    2f62:	50 95       	com	r21
    2f64:	24 23       	and	r18, r20
    2f66:	35 23       	and	r19, r21
    2f68:	21 15       	cp	r18, r1
    2f6a:	31 05       	cpc	r19, r1
    2f6c:	09 f4       	brne	.+2      	; 0x2f70 <_ZN20OrangutanPushbuttons23getSingleDebouncedPressEh+0x54>
    2f6e:	74 c0       	rjmp	.+232    	; 0x3058 <_ZN20OrangutanPushbuttons23getSingleDebouncedPressEh+0x13c>
    2f70:	cb 20       	and	r12, r11
    2f72:	c0 92 b2 02 	sts	0x02B2, r12
    2f76:	e0 92 b3 02 	sts	0x02B3, r14
    2f7a:	f0 92 b4 02 	sts	0x02B4, r15
    2f7e:	00 93 b5 02 	sts	0x02B5, r16
    2f82:	10 93 b6 02 	sts	0x02B6, r17
    2f86:	81 e0       	ldi	r24, 0x01	; 1
    2f88:	80 93 b7 02 	sts	0x02B7, r24
    2f8c:	65 c0       	rjmp	.+202    	; 0x3058 <_ZN20OrangutanPushbuttons23getSingleDebouncedPressEh+0x13c>
    2f8e:	80 91 b3 02 	lds	r24, 0x02B3
    2f92:	90 91 b4 02 	lds	r25, 0x02B4
    2f96:	a0 91 b5 02 	lds	r26, 0x02B5
    2f9a:	b0 91 b6 02 	lds	r27, 0x02B6
    2f9e:	e8 1a       	sub	r14, r24
    2fa0:	f9 0a       	sbc	r15, r25
    2fa2:	0a 0b       	sbc	r16, r26
    2fa4:	1b 0b       	sbc	r17, r27
    2fa6:	8f e0       	ldi	r24, 0x0F	; 15
    2fa8:	e8 16       	cp	r14, r24
    2faa:	f1 04       	cpc	r15, r1
    2fac:	01 05       	cpc	r16, r1
    2fae:	11 05       	cpc	r17, r1
    2fb0:	08 f4       	brcc	.+2      	; 0x2fb4 <_ZN20OrangutanPushbuttons23getSingleDebouncedPressEh+0x98>
    2fb2:	52 c0       	rjmp	.+164    	; 0x3058 <_ZN20OrangutanPushbuttons23getSingleDebouncedPressEh+0x13c>
    2fb4:	40 91 b2 02 	lds	r20, 0x02B2
    2fb8:	8d 2d       	mov	r24, r13
    2fba:	90 e0       	ldi	r25, 0x00	; 0
    2fbc:	80 95       	com	r24
    2fbe:	90 95       	com	r25
    2fc0:	24 2f       	mov	r18, r20
    2fc2:	30 e0       	ldi	r19, 0x00	; 0
    2fc4:	82 23       	and	r24, r18
    2fc6:	93 23       	and	r25, r19
    2fc8:	00 97       	sbiw	r24, 0x00	; 0
    2fca:	31 f1       	breq	.+76     	; 0x3018 <_ZN20OrangutanPushbuttons23getSingleDebouncedPressEh+0xfc>
    2fcc:	82 e0       	ldi	r24, 0x02	; 2
    2fce:	80 93 b7 02 	sts	0x02B7, r24
    2fd2:	c4 22       	and	r12, r20
    2fd4:	c0 92 b2 02 	sts	0x02B2, r12
    2fd8:	3f c0       	rjmp	.+126    	; 0x3058 <_ZN20OrangutanPushbuttons23getSingleDebouncedPressEh+0x13c>
    2fda:	40 91 b2 02 	lds	r20, 0x02B2
    2fde:	8d 2d       	mov	r24, r13
    2fe0:	84 23       	and	r24, r20
    2fe2:	71 f0       	breq	.+28     	; 0x3000 <_ZN20OrangutanPushbuttons23getSingleDebouncedPressEh+0xe4>
    2fe4:	93 e0       	ldi	r25, 0x03	; 3
    2fe6:	90 93 b7 02 	sts	0x02B7, r25
    2fea:	80 93 b2 02 	sts	0x02B2, r24
    2fee:	e0 92 b3 02 	sts	0x02B3, r14
    2ff2:	f0 92 b4 02 	sts	0x02B4, r15
    2ff6:	00 93 b5 02 	sts	0x02B5, r16
    2ffa:	10 93 b6 02 	sts	0x02B6, r17
    2ffe:	2c c0       	rjmp	.+88     	; 0x3058 <_ZN20OrangutanPushbuttons23getSingleDebouncedPressEh+0x13c>
    3000:	50 e0       	ldi	r21, 0x00	; 0
    3002:	8b 2d       	mov	r24, r11
    3004:	90 e0       	ldi	r25, 0x00	; 0
    3006:	2d 2d       	mov	r18, r13
    3008:	30 e0       	ldi	r19, 0x00	; 0
    300a:	20 95       	com	r18
    300c:	30 95       	com	r19
    300e:	82 23       	and	r24, r18
    3010:	93 23       	and	r25, r19
    3012:	48 17       	cp	r20, r24
    3014:	59 07       	cpc	r21, r25
    3016:	01 f1       	breq	.+64     	; 0x3058 <_ZN20OrangutanPushbuttons23getSingleDebouncedPressEh+0x13c>
    3018:	10 92 b7 02 	sts	0x02B7, r1
    301c:	1d c0       	rjmp	.+58     	; 0x3058 <_ZN20OrangutanPushbuttons23getSingleDebouncedPressEh+0x13c>
    301e:	80 91 b3 02 	lds	r24, 0x02B3
    3022:	90 91 b4 02 	lds	r25, 0x02B4
    3026:	a0 91 b5 02 	lds	r26, 0x02B5
    302a:	b0 91 b6 02 	lds	r27, 0x02B6
    302e:	e8 1a       	sub	r14, r24
    3030:	f9 0a       	sbc	r15, r25
    3032:	0a 0b       	sbc	r16, r26
    3034:	1b 0b       	sbc	r17, r27
    3036:	8f e0       	ldi	r24, 0x0F	; 15
    3038:	e8 16       	cp	r14, r24
    303a:	f1 04       	cpc	r15, r1
    303c:	01 05       	cpc	r16, r1
    303e:	11 05       	cpc	r17, r1
    3040:	58 f0       	brcs	.+22     	; 0x3058 <_ZN20OrangutanPushbuttons23getSingleDebouncedPressEh+0x13c>
    3042:	80 91 b2 02 	lds	r24, 0x02B2
    3046:	8d 21       	and	r24, r13
    3048:	19 f0       	breq	.+6      	; 0x3050 <_ZN20OrangutanPushbuttons23getSingleDebouncedPressEh+0x134>
    304a:	10 92 b7 02 	sts	0x02B7, r1
    304e:	05 c0       	rjmp	.+10     	; 0x305a <_ZN20OrangutanPushbuttons23getSingleDebouncedPressEh+0x13e>
    3050:	92 e0       	ldi	r25, 0x02	; 2
    3052:	90 93 b7 02 	sts	0x02B7, r25
    3056:	01 c0       	rjmp	.+2      	; 0x305a <_ZN20OrangutanPushbuttons23getSingleDebouncedPressEh+0x13e>
    3058:	80 e0       	ldi	r24, 0x00	; 0
    305a:	1f 91       	pop	r17
    305c:	0f 91       	pop	r16
    305e:	ff 90       	pop	r15
    3060:	ef 90       	pop	r14
    3062:	df 90       	pop	r13
    3064:	cf 90       	pop	r12
    3066:	bf 90       	pop	r11
    3068:	08 95       	ret

0000306a <get_single_debounced_button_press>:
    306a:	0e 94 8e 17 	call	0x2f1c	; 0x2f1c <_ZN20OrangutanPushbuttons23getSingleDebouncedPressEh>
    306e:	08 95       	ret

00003070 <_ZN20OrangutanPushbuttons25getSingleDebouncedReleaseEh>:
    3070:	cf 92       	push	r12
    3072:	df 92       	push	r13
    3074:	ef 92       	push	r14
    3076:	ff 92       	push	r15
    3078:	0f 93       	push	r16
    307a:	1f 93       	push	r17
    307c:	c8 2e       	mov	r12, r24
    307e:	d3 b0       	in	r13, 0x03	; 3
    3080:	0e 94 94 19 	call	0x3328	; 0x3328 <get_ms>
    3084:	7b 01       	movw	r14, r22
    3086:	8c 01       	movw	r16, r24
    3088:	0e 94 27 17 	call	0x2e4e	; 0x2e4e <_ZN20OrangutanPushbuttons4initEv>
    308c:	80 91 b1 02 	lds	r24, 0x02B1
    3090:	81 30       	cpi	r24, 0x01	; 1
    3092:	29 f1       	breq	.+74     	; 0x30de <_ZN20OrangutanPushbuttons25getSingleDebouncedReleaseEh+0x6e>
    3094:	81 30       	cpi	r24, 0x01	; 1
    3096:	38 f0       	brcs	.+14     	; 0x30a6 <_ZN20OrangutanPushbuttons25getSingleDebouncedReleaseEh+0x36>
    3098:	82 30       	cpi	r24, 0x02	; 2
    309a:	09 f4       	brne	.+2      	; 0x309e <_ZN20OrangutanPushbuttons25getSingleDebouncedReleaseEh+0x2e>
    309c:	47 c0       	rjmp	.+142    	; 0x312c <_ZN20OrangutanPushbuttons25getSingleDebouncedReleaseEh+0xbc>
    309e:	83 30       	cpi	r24, 0x03	; 3
    30a0:	09 f0       	breq	.+2      	; 0x30a4 <_ZN20OrangutanPushbuttons25getSingleDebouncedReleaseEh+0x34>
    30a2:	83 c0       	rjmp	.+262    	; 0x31aa <_ZN20OrangutanPushbuttons25getSingleDebouncedReleaseEh+0x13a>
    30a4:	65 c0       	rjmp	.+202    	; 0x3170 <_ZN20OrangutanPushbuttons25getSingleDebouncedReleaseEh+0x100>
    30a6:	2c 2d       	mov	r18, r12
    30a8:	30 e0       	ldi	r19, 0x00	; 0
    30aa:	4d 2d       	mov	r20, r13
    30ac:	50 e0       	ldi	r21, 0x00	; 0
    30ae:	40 95       	com	r20
    30b0:	50 95       	com	r21
    30b2:	24 23       	and	r18, r20
    30b4:	35 23       	and	r19, r21
    30b6:	21 15       	cp	r18, r1
    30b8:	31 05       	cpc	r19, r1
    30ba:	09 f4       	brne	.+2      	; 0x30be <_ZN20OrangutanPushbuttons25getSingleDebouncedReleaseEh+0x4e>
    30bc:	76 c0       	rjmp	.+236    	; 0x31aa <_ZN20OrangutanPushbuttons25getSingleDebouncedReleaseEh+0x13a>
    30be:	d0 94       	com	r13
    30c0:	dc 20       	and	r13, r12
    30c2:	d0 92 ac 02 	sts	0x02AC, r13
    30c6:	e0 92 ad 02 	sts	0x02AD, r14
    30ca:	f0 92 ae 02 	sts	0x02AE, r15
    30ce:	00 93 af 02 	sts	0x02AF, r16
    30d2:	10 93 b0 02 	sts	0x02B0, r17
    30d6:	81 e0       	ldi	r24, 0x01	; 1
    30d8:	80 93 b1 02 	sts	0x02B1, r24
    30dc:	66 c0       	rjmp	.+204    	; 0x31aa <_ZN20OrangutanPushbuttons25getSingleDebouncedReleaseEh+0x13a>
    30de:	80 91 ad 02 	lds	r24, 0x02AD
    30e2:	90 91 ae 02 	lds	r25, 0x02AE
    30e6:	a0 91 af 02 	lds	r26, 0x02AF
    30ea:	b0 91 b0 02 	lds	r27, 0x02B0
    30ee:	e8 1a       	sub	r14, r24
    30f0:	f9 0a       	sbc	r15, r25
    30f2:	0a 0b       	sbc	r16, r26
    30f4:	1b 0b       	sbc	r17, r27
    30f6:	8f e0       	ldi	r24, 0x0F	; 15
    30f8:	e8 16       	cp	r14, r24
    30fa:	f1 04       	cpc	r15, r1
    30fc:	01 05       	cpc	r16, r1
    30fe:	11 05       	cpc	r17, r1
    3100:	08 f4       	brcc	.+2      	; 0x3104 <_ZN20OrangutanPushbuttons25getSingleDebouncedReleaseEh+0x94>
    3102:	53 c0       	rjmp	.+166    	; 0x31aa <_ZN20OrangutanPushbuttons25getSingleDebouncedReleaseEh+0x13a>
    3104:	40 91 ac 02 	lds	r20, 0x02AC
    3108:	8d 2d       	mov	r24, r13
    310a:	90 e0       	ldi	r25, 0x00	; 0
    310c:	80 95       	com	r24
    310e:	90 95       	com	r25
    3110:	24 2f       	mov	r18, r20
    3112:	30 e0       	ldi	r19, 0x00	; 0
    3114:	82 23       	and	r24, r18
    3116:	93 23       	and	r25, r19
    3118:	00 97       	sbiw	r24, 0x00	; 0
    311a:	39 f1       	breq	.+78     	; 0x316a <_ZN20OrangutanPushbuttons25getSingleDebouncedReleaseEh+0xfa>
    311c:	82 e0       	ldi	r24, 0x02	; 2
    311e:	80 93 b1 02 	sts	0x02B1, r24
    3122:	d0 94       	com	r13
    3124:	d4 22       	and	r13, r20
    3126:	d0 92 ac 02 	sts	0x02AC, r13
    312a:	3f c0       	rjmp	.+126    	; 0x31aa <_ZN20OrangutanPushbuttons25getSingleDebouncedReleaseEh+0x13a>
    312c:	40 91 ac 02 	lds	r20, 0x02AC
    3130:	84 2f       	mov	r24, r20
    3132:	8d 21       	and	r24, r13
    3134:	71 f0       	breq	.+28     	; 0x3152 <_ZN20OrangutanPushbuttons25getSingleDebouncedReleaseEh+0xe2>
    3136:	93 e0       	ldi	r25, 0x03	; 3
    3138:	90 93 b1 02 	sts	0x02B1, r25
    313c:	80 93 ac 02 	sts	0x02AC, r24
    3140:	e0 92 ad 02 	sts	0x02AD, r14
    3144:	f0 92 ae 02 	sts	0x02AE, r15
    3148:	00 93 af 02 	sts	0x02AF, r16
    314c:	10 93 b0 02 	sts	0x02B0, r17
    3150:	2c c0       	rjmp	.+88     	; 0x31aa <_ZN20OrangutanPushbuttons25getSingleDebouncedReleaseEh+0x13a>
    3152:	50 e0       	ldi	r21, 0x00	; 0
    3154:	8c 2d       	mov	r24, r12
    3156:	90 e0       	ldi	r25, 0x00	; 0
    3158:	2d 2d       	mov	r18, r13
    315a:	30 e0       	ldi	r19, 0x00	; 0
    315c:	20 95       	com	r18
    315e:	30 95       	com	r19
    3160:	82 23       	and	r24, r18
    3162:	93 23       	and	r25, r19
    3164:	48 17       	cp	r20, r24
    3166:	59 07       	cpc	r21, r25
    3168:	01 f1       	breq	.+64     	; 0x31aa <_ZN20OrangutanPushbuttons25getSingleDebouncedReleaseEh+0x13a>
    316a:	10 92 b1 02 	sts	0x02B1, r1
    316e:	1d c0       	rjmp	.+58     	; 0x31aa <_ZN20OrangutanPushbuttons25getSingleDebouncedReleaseEh+0x13a>
    3170:	80 91 ad 02 	lds	r24, 0x02AD
    3174:	90 91 ae 02 	lds	r25, 0x02AE
    3178:	a0 91 af 02 	lds	r26, 0x02AF
    317c:	b0 91 b0 02 	lds	r27, 0x02B0
    3180:	e8 1a       	sub	r14, r24
    3182:	f9 0a       	sbc	r15, r25
    3184:	0a 0b       	sbc	r16, r26
    3186:	1b 0b       	sbc	r17, r27
    3188:	8f e0       	ldi	r24, 0x0F	; 15
    318a:	e8 16       	cp	r14, r24
    318c:	f1 04       	cpc	r15, r1
    318e:	01 05       	cpc	r16, r1
    3190:	11 05       	cpc	r17, r1
    3192:	58 f0       	brcs	.+22     	; 0x31aa <_ZN20OrangutanPushbuttons25getSingleDebouncedReleaseEh+0x13a>
    3194:	80 91 ac 02 	lds	r24, 0x02AC
    3198:	8d 21       	and	r24, r13
    319a:	19 f0       	breq	.+6      	; 0x31a2 <_ZN20OrangutanPushbuttons25getSingleDebouncedReleaseEh+0x132>
    319c:	10 92 b1 02 	sts	0x02B1, r1
    31a0:	05 c0       	rjmp	.+10     	; 0x31ac <_ZN20OrangutanPushbuttons25getSingleDebouncedReleaseEh+0x13c>
    31a2:	92 e0       	ldi	r25, 0x02	; 2
    31a4:	90 93 b1 02 	sts	0x02B1, r25
    31a8:	01 c0       	rjmp	.+2      	; 0x31ac <_ZN20OrangutanPushbuttons25getSingleDebouncedReleaseEh+0x13c>
    31aa:	80 e0       	ldi	r24, 0x00	; 0
    31ac:	1f 91       	pop	r17
    31ae:	0f 91       	pop	r16
    31b0:	ff 90       	pop	r15
    31b2:	ef 90       	pop	r14
    31b4:	df 90       	pop	r13
    31b6:	cf 90       	pop	r12
    31b8:	08 95       	ret

000031ba <get_single_debounced_button_release>:
    31ba:	0e 94 38 18 	call	0x3070	; 0x3070 <_ZN20OrangutanPushbuttons25getSingleDebouncedReleaseEh>
    31be:	08 95       	ret

000031c0 <_ZN13OrangutanTime17delayMicrosecondsEj>:
    31c0:	6f 93       	push	r22
    31c2:	64 e0       	ldi	r22, 0x04	; 4
    31c4:	6a 95       	dec	r22
    31c6:	f1 f7       	brne	.-4      	; 0x31c4 <_ZN13OrangutanTime17delayMicrosecondsEj+0x4>
    31c8:	6f 91       	pop	r22
    31ca:	01 97       	sbiw	r24, 0x01	; 1
    31cc:	c9 f7       	brne	.-14     	; 0x31c0 <_ZN13OrangutanTime17delayMicrosecondsEj>
    31ce:	08 95       	ret

000031d0 <__vector_9>:
    31d0:	2f 92       	push	r2
    31d2:	8f 93       	push	r24
    31d4:	9f 93       	push	r25
    31d6:	2f b6       	in	r2, 0x3f	; 63
    31d8:	80 91 b9 02 	lds	r24, 0x02B9
    31dc:	90 91 ba 02 	lds	r25, 0x02BA
    31e0:	01 96       	adiw	r24, 0x01	; 1
    31e2:	80 93 b9 02 	sts	0x02B9, r24
    31e6:	90 93 ba 02 	sts	0x02BA, r25
    31ea:	90 e0       	ldi	r25, 0x00	; 0
    31ec:	80 91 bb 02 	lds	r24, 0x02BB
    31f0:	89 1f       	adc	r24, r25
    31f2:	80 93 bb 02 	sts	0x02BB, r24
    31f6:	90 91 c1 02 	lds	r25, 0x02C1
    31fa:	9c 5f       	subi	r25, 0xFC	; 252
    31fc:	90 93 c1 02 	sts	0x02C1, r25
    3200:	80 91 c0 02 	lds	r24, 0x02C0
    3204:	80 51       	subi	r24, 0x10	; 16
    3206:	97 42       	sbci	r25, 0x27	; 39
    3208:	c0 f0       	brcs	.+48     	; 0x323a <end>
    320a:	90 93 c1 02 	sts	0x02C1, r25
    320e:	80 93 c0 02 	sts	0x02C0, r24
    3212:	80 91 bc 02 	lds	r24, 0x02BC
    3216:	90 91 bd 02 	lds	r25, 0x02BD
    321a:	01 96       	adiw	r24, 0x01	; 1
    321c:	80 93 bc 02 	sts	0x02BC, r24
    3220:	90 93 bd 02 	sts	0x02BD, r25
    3224:	90 e0       	ldi	r25, 0x00	; 0
    3226:	80 91 be 02 	lds	r24, 0x02BE
    322a:	89 1f       	adc	r24, r25
    322c:	80 93 be 02 	sts	0x02BE, r24
    3230:	80 91 bf 02 	lds	r24, 0x02BF
    3234:	89 1f       	adc	r24, r25
    3236:	80 93 bf 02 	sts	0x02BF, r24

0000323a <end>:
    323a:	2f be       	out	0x3f, r2	; 63
    323c:	9f 91       	pop	r25
    323e:	8f 91       	pop	r24
    3240:	2f 90       	pop	r2
    3242:	18 95       	reti

00003244 <ticks_to_microseconds>:
    3244:	0f 93       	push	r16
    3246:	1f 93       	push	r17
    3248:	6f 5f       	subi	r22, 0xFF	; 255
    324a:	7f 4f       	sbci	r23, 0xFF	; 255
    324c:	8f 4f       	sbci	r24, 0xFF	; 255
    324e:	9f 4f       	sbci	r25, 0xFF	; 255
    3250:	66 0f       	add	r22, r22
    3252:	77 1f       	adc	r23, r23
    3254:	88 1f       	adc	r24, r24
    3256:	99 1f       	adc	r25, r25
    3258:	25 e0       	ldi	r18, 0x05	; 5
    325a:	30 e0       	ldi	r19, 0x00	; 0
    325c:	40 e0       	ldi	r20, 0x00	; 0
    325e:	50 e0       	ldi	r21, 0x00	; 0
    3260:	0e 94 b4 21 	call	0x4368	; 0x4368 <__udivmodsi4>
    3264:	b9 01       	movw	r22, r18
    3266:	ca 01       	movw	r24, r20
    3268:	1f 91       	pop	r17
    326a:	0f 91       	pop	r16
    326c:	08 95       	ret

0000326e <_ZN13OrangutanTime19ticksToMicrosecondsEm>:
    326e:	0f 93       	push	r16
    3270:	1f 93       	push	r17
    3272:	6f 5f       	subi	r22, 0xFF	; 255
    3274:	7f 4f       	sbci	r23, 0xFF	; 255
    3276:	8f 4f       	sbci	r24, 0xFF	; 255
    3278:	9f 4f       	sbci	r25, 0xFF	; 255
    327a:	66 0f       	add	r22, r22
    327c:	77 1f       	adc	r23, r23
    327e:	88 1f       	adc	r24, r24
    3280:	99 1f       	adc	r25, r25
    3282:	25 e0       	ldi	r18, 0x05	; 5
    3284:	30 e0       	ldi	r19, 0x00	; 0
    3286:	40 e0       	ldi	r20, 0x00	; 0
    3288:	50 e0       	ldi	r21, 0x00	; 0
    328a:	0e 94 b4 21 	call	0x4368	; 0x4368 <__udivmodsi4>
    328e:	b9 01       	movw	r22, r18
    3290:	ca 01       	movw	r24, r20
    3292:	1f 91       	pop	r17
    3294:	0f 91       	pop	r16
    3296:	08 95       	ret

00003298 <_ZN13OrangutanTime17delayMillisecondsEj>:
    3298:	cf 93       	push	r28
    329a:	df 93       	push	r29
    329c:	ec 01       	movw	r28, r24
    329e:	05 c0       	rjmp	.+10     	; 0x32aa <_ZN13OrangutanTime17delayMillisecondsEj+0x12>
    32a0:	88 ee       	ldi	r24, 0xE8	; 232
    32a2:	93 e0       	ldi	r25, 0x03	; 3
    32a4:	0e 94 e0 18 	call	0x31c0	; 0x31c0 <_ZN13OrangutanTime17delayMicrosecondsEj>
    32a8:	21 97       	sbiw	r28, 0x01	; 1
    32aa:	20 97       	sbiw	r28, 0x00	; 0
    32ac:	c9 f7       	brne	.-14     	; 0x32a0 <_ZN13OrangutanTime17delayMillisecondsEj+0x8>
    32ae:	df 91       	pop	r29
    32b0:	cf 91       	pop	r28
    32b2:	08 95       	ret

000032b4 <delay_ms>:
    32b4:	0e 94 4c 19 	call	0x3298	; 0x3298 <_ZN13OrangutanTime17delayMillisecondsEj>
    32b8:	08 95       	ret

000032ba <_ZN13OrangutanTime5init2Ev>:
    32ba:	e0 e7       	ldi	r30, 0x70	; 112
    32bc:	f0 e0       	ldi	r31, 0x00	; 0
    32be:	80 81       	ld	r24, Z
    32c0:	8e 7f       	andi	r24, 0xFE	; 254
    32c2:	80 83       	st	Z, r24
    32c4:	a0 eb       	ldi	r26, 0xB0	; 176
    32c6:	b0 e0       	ldi	r27, 0x00	; 0
    32c8:	8c 91       	ld	r24, X
    32ca:	83 60       	ori	r24, 0x03	; 3
    32cc:	8c 93       	st	X, r24
    32ce:	a1 eb       	ldi	r26, 0xB1	; 177
    32d0:	b0 e0       	ldi	r27, 0x00	; 0
    32d2:	8c 91       	ld	r24, X
    32d4:	80 7f       	andi	r24, 0xF0	; 240
    32d6:	8c 93       	st	X, r24
    32d8:	8c 91       	ld	r24, X
    32da:	82 60       	ori	r24, 0x02	; 2
    32dc:	8c 93       	st	X, r24
    32de:	b8 9a       	sbi	0x17, 0	; 23
    32e0:	80 81       	ld	r24, Z
    32e2:	81 60       	ori	r24, 0x01	; 1
    32e4:	80 83       	st	Z, r24
    32e6:	78 94       	sei
    32e8:	08 95       	ret

000032ea <_ZN13OrangutanTime4initEv>:
    32ea:	80 91 c2 02 	lds	r24, 0x02C2
    32ee:	88 23       	and	r24, r24
    32f0:	29 f4       	brne	.+10     	; 0x32fc <_ZN13OrangutanTime4initEv+0x12>
    32f2:	81 e0       	ldi	r24, 0x01	; 1
    32f4:	80 93 c2 02 	sts	0x02C2, r24
    32f8:	0e 94 5d 19 	call	0x32ba	; 0x32ba <_ZN13OrangutanTime5init2Ev>
    32fc:	08 95       	ret

000032fe <_ZN13OrangutanTime2msEv>:
    32fe:	0e 94 75 19 	call	0x32ea	; 0x32ea <_ZN13OrangutanTime4initEv>
    3302:	e0 e7       	ldi	r30, 0x70	; 112
    3304:	f0 e0       	ldi	r31, 0x00	; 0
    3306:	80 81       	ld	r24, Z
    3308:	8e 7f       	andi	r24, 0xFE	; 254
    330a:	80 83       	st	Z, r24
    330c:	20 91 bc 02 	lds	r18, 0x02BC
    3310:	30 91 bd 02 	lds	r19, 0x02BD
    3314:	40 91 be 02 	lds	r20, 0x02BE
    3318:	50 91 bf 02 	lds	r21, 0x02BF
    331c:	80 81       	ld	r24, Z
    331e:	81 60       	ori	r24, 0x01	; 1
    3320:	80 83       	st	Z, r24
    3322:	b9 01       	movw	r22, r18
    3324:	ca 01       	movw	r24, r20
    3326:	08 95       	ret

00003328 <get_ms>:
    3328:	0e 94 7f 19 	call	0x32fe	; 0x32fe <_ZN13OrangutanTime2msEv>
    332c:	08 95       	ret

0000332e <_ZN13OrangutanTime5ticksEv>:
    332e:	0e 94 75 19 	call	0x32ea	; 0x32ea <_ZN13OrangutanTime4initEv>
    3332:	80 91 70 00 	lds	r24, 0x0070
    3336:	8e 7f       	andi	r24, 0xFE	; 254
    3338:	80 93 70 00 	sts	0x0070, r24
    333c:	20 91 b2 00 	lds	r18, 0x00B2
    3340:	80 91 b8 02 	lds	r24, 0x02B8
    3344:	90 91 b9 02 	lds	r25, 0x02B9
    3348:	a0 91 ba 02 	lds	r26, 0x02BA
    334c:	b0 91 bb 02 	lds	r27, 0x02BB
    3350:	b8 99       	sbic	0x17, 0	; 23
    3352:	04 c0       	rjmp	.+8      	; 0x335c <_ZN13OrangutanTime5ticksEv+0x2e>
    3354:	30 e0       	ldi	r19, 0x00	; 0
    3356:	40 e0       	ldi	r20, 0x00	; 0
    3358:	50 e0       	ldi	r21, 0x00	; 0
    335a:	11 c0       	rjmp	.+34     	; 0x337e <_ZN13OrangutanTime5ticksEv+0x50>
    335c:	80 91 b2 00 	lds	r24, 0x00B2
    3360:	20 91 b8 02 	lds	r18, 0x02B8
    3364:	30 91 b9 02 	lds	r19, 0x02B9
    3368:	40 91 ba 02 	lds	r20, 0x02BA
    336c:	50 91 bb 02 	lds	r21, 0x02BB
    3370:	20 50       	subi	r18, 0x00	; 0
    3372:	3f 4f       	sbci	r19, 0xFF	; 255
    3374:	4f 4f       	sbci	r20, 0xFF	; 255
    3376:	5f 4f       	sbci	r21, 0xFF	; 255
    3378:	90 e0       	ldi	r25, 0x00	; 0
    337a:	a0 e0       	ldi	r26, 0x00	; 0
    337c:	b0 e0       	ldi	r27, 0x00	; 0
    337e:	28 2b       	or	r18, r24
    3380:	39 2b       	or	r19, r25
    3382:	4a 2b       	or	r20, r26
    3384:	5b 2b       	or	r21, r27
    3386:	80 91 70 00 	lds	r24, 0x0070
    338a:	81 60       	ori	r24, 0x01	; 1
    338c:	80 93 70 00 	sts	0x0070, r24
    3390:	b9 01       	movw	r22, r18
    3392:	ca 01       	movw	r24, r20
    3394:	08 95       	ret

00003396 <get_ticks>:
    3396:	0e 94 97 19 	call	0x332e	; 0x332e <_ZN13OrangutanTime5ticksEv>
    339a:	08 95       	ret

0000339c <_ZN13OrangutanTime5resetEv>:
    339c:	0e 94 75 19 	call	0x32ea	; 0x32ea <_ZN13OrangutanTime4initEv>
    33a0:	e0 e7       	ldi	r30, 0x70	; 112
    33a2:	f0 e0       	ldi	r31, 0x00	; 0
    33a4:	80 81       	ld	r24, Z
    33a6:	8e 7f       	andi	r24, 0xFE	; 254
    33a8:	80 83       	st	Z, r24
    33aa:	10 92 bc 02 	sts	0x02BC, r1
    33ae:	10 92 bd 02 	sts	0x02BD, r1
    33b2:	10 92 be 02 	sts	0x02BE, r1
    33b6:	10 92 bf 02 	sts	0x02BF, r1
    33ba:	10 92 c1 02 	sts	0x02C1, r1
    33be:	10 92 c0 02 	sts	0x02C0, r1
    33c2:	80 81       	ld	r24, Z
    33c4:	81 60       	ori	r24, 0x01	; 1
    33c6:	80 83       	st	Z, r24
    33c8:	08 95       	ret

000033ca <time_reset>:
    33ca:	0e 94 ce 19 	call	0x339c	; 0x339c <_ZN13OrangutanTime5resetEv>
    33ce:	08 95       	ret

000033d0 <read_line_sensors>:
    33d0:	9c 01       	movw	r18, r24
    33d2:	46 2f       	mov	r20, r22
    33d4:	83 ec       	ldi	r24, 0xC3	; 195
    33d6:	92 e0       	ldi	r25, 0x02	; 2
    33d8:	b9 01       	movw	r22, r18
    33da:	0e 94 29 1e 	call	0x3c52	; 0x3c52 <_ZN16PololuQTRSensors4readEPjh>
    33de:	08 95       	ret

000033e0 <emitters_on>:
    33e0:	83 ec       	ldi	r24, 0xC3	; 195
    33e2:	92 e0       	ldi	r25, 0x02	; 2
    33e4:	0e 94 65 1b 	call	0x36ca	; 0x36ca <_ZN16PololuQTRSensors10emittersOnEv>
    33e8:	08 95       	ret

000033ea <emitters_off>:
    33ea:	83 ec       	ldi	r24, 0xC3	; 195
    33ec:	92 e0       	ldi	r25, 0x02	; 2
    33ee:	0e 94 49 1b 	call	0x3692	; 0x3692 <_ZN16PololuQTRSensors11emittersOffEv>
    33f2:	08 95       	ret

000033f4 <calibrate_line_sensors>:
    33f4:	68 2f       	mov	r22, r24
    33f6:	83 ec       	ldi	r24, 0xC3	; 195
    33f8:	92 e0       	ldi	r25, 0x02	; 2
    33fa:	0e 94 0e 21 	call	0x421c	; 0x421c <_ZN16PololuQTRSensors9calibrateEh>
    33fe:	08 95       	ret

00003400 <line_sensors_reset_calibration>:
    3400:	83 ec       	ldi	r24, 0xC3	; 195
    3402:	92 e0       	ldi	r25, 0x02	; 2
    3404:	0e 94 80 1b 	call	0x3700	; 0x3700 <_ZN16PololuQTRSensors16resetCalibrationEv>
    3408:	08 95       	ret

0000340a <read_line_sensors_calibrated>:
    340a:	9c 01       	movw	r18, r24
    340c:	46 2f       	mov	r20, r22
    340e:	83 ec       	ldi	r24, 0xC3	; 195
    3410:	92 e0       	ldi	r25, 0x02	; 2
    3412:	b9 01       	movw	r22, r18
    3414:	0e 94 88 1e 	call	0x3d10	; 0x3d10 <_ZN16PololuQTRSensors14readCalibratedEPjh>
    3418:	08 95       	ret

0000341a <read_line>:
    341a:	9c 01       	movw	r18, r24
    341c:	46 2f       	mov	r20, r22
    341e:	83 ec       	ldi	r24, 0xC3	; 195
    3420:	92 e0       	ldi	r25, 0x02	; 2
    3422:	b9 01       	movw	r22, r18
    3424:	20 e0       	ldi	r18, 0x00	; 0
    3426:	0e 94 4c 1f 	call	0x3e98	; 0x3e98 <_ZN16PololuQTRSensors8readLineEPjhh>
    342a:	08 95       	ret

0000342c <read_line_white>:
    342c:	9c 01       	movw	r18, r24
    342e:	46 2f       	mov	r20, r22
    3430:	83 ec       	ldi	r24, 0xC3	; 195
    3432:	92 e0       	ldi	r25, 0x02	; 2
    3434:	b9 01       	movw	r22, r18
    3436:	21 e0       	ldi	r18, 0x01	; 1
    3438:	0e 94 4c 1f 	call	0x3e98	; 0x3e98 <_ZN16PololuQTRSensors8readLineEPjhh>
    343c:	08 95       	ret

0000343e <get_line_sensors_calibrated_minimum_on>:
    343e:	80 91 c3 02 	lds	r24, 0x02C3
    3442:	90 91 c4 02 	lds	r25, 0x02C4
    3446:	08 95       	ret

00003448 <get_line_sensors_calibrated_maximum_on>:
    3448:	80 91 c5 02 	lds	r24, 0x02C5
    344c:	90 91 c6 02 	lds	r25, 0x02C6
    3450:	08 95       	ret

00003452 <get_line_sensors_calibrated_minimum_off>:
    3452:	80 91 c7 02 	lds	r24, 0x02C7
    3456:	90 91 c8 02 	lds	r25, 0x02C8
    345a:	08 95       	ret

0000345c <get_line_sensors_calibrated_maximum_off>:
    345c:	80 91 c9 02 	lds	r24, 0x02C9
    3460:	90 91 ca 02 	lds	r25, 0x02CA
    3464:	08 95       	ret

00003466 <_ZN9Pololu3pi4initEjh>:
    3466:	0f 93       	push	r16
    3468:	df 93       	push	r29
    346a:	cf 93       	push	r28
    346c:	00 d0       	rcall	.+0      	; 0x346e <_ZN9Pololu3pi4initEjh+0x8>
    346e:	00 d0       	rcall	.+0      	; 0x3470 <_ZN9Pololu3pi4initEjh+0xa>
    3470:	0f 92       	push	r0
    3472:	cd b7       	in	r28, 0x3d	; 61
    3474:	de b7       	in	r29, 0x3e	; 62
    3476:	9c 01       	movw	r18, r24
    3478:	96 2f       	mov	r25, r22
    347a:	de 01       	movw	r26, r28
    347c:	11 96       	adiw	r26, 0x01	; 1
    347e:	e4 e8       	ldi	r30, 0x84	; 132
    3480:	f1 e0       	ldi	r31, 0x01	; 1
    3482:	85 e0       	ldi	r24, 0x05	; 5
    3484:	01 90       	ld	r0, Z+
    3486:	0d 92       	st	X+, r0
    3488:	81 50       	subi	r24, 0x01	; 1
    348a:	e1 f7       	brne	.-8      	; 0x3484 <_ZN9Pololu3pi4initEjh+0x1e>
    348c:	be 01       	movw	r22, r28
    348e:	6f 5f       	subi	r22, 0xFF	; 255
    3490:	7f 4f       	sbci	r23, 0xFF	; 255
    3492:	99 23       	and	r25, r25
    3494:	29 f0       	breq	.+10     	; 0x34a0 <_ZN9Pololu3pi4initEjh+0x3a>
    3496:	83 ec       	ldi	r24, 0xC3	; 195
    3498:	92 e0       	ldi	r25, 0x02	; 2
    349a:	45 e0       	ldi	r20, 0x05	; 5
    349c:	0f ef       	ldi	r16, 0xFF	; 255
    349e:	04 c0       	rjmp	.+8      	; 0x34a8 <_ZN9Pololu3pi4initEjh+0x42>
    34a0:	83 ec       	ldi	r24, 0xC3	; 195
    34a2:	92 e0       	ldi	r25, 0x02	; 2
    34a4:	45 e0       	ldi	r20, 0x05	; 5
    34a6:	03 e1       	ldi	r16, 0x13	; 19
    34a8:	0e 94 c7 1b 	call	0x378e	; 0x378e <_ZN18PololuQTRSensorsRC4initEPhhjh>
    34ac:	83 ec       	ldi	r24, 0xC3	; 195
    34ae:	92 e0       	ldi	r25, 0x02	; 2
    34b0:	0e 94 49 1b 	call	0x3692	; 0x3692 <_ZN16PololuQTRSensors11emittersOffEv>
    34b4:	0e 94 ce 19 	call	0x339c	; 0x339c <_ZN13OrangutanTime5resetEv>
    34b8:	0f 90       	pop	r0
    34ba:	0f 90       	pop	r0
    34bc:	0f 90       	pop	r0
    34be:	0f 90       	pop	r0
    34c0:	0f 90       	pop	r0
    34c2:	cf 91       	pop	r28
    34c4:	df 91       	pop	r29
    34c6:	0f 91       	pop	r16
    34c8:	08 95       	ret

000034ca <pololu_3pi_init_disable_emitter_pin>:
    34ca:	61 e0       	ldi	r22, 0x01	; 1
    34cc:	0e 94 33 1a 	call	0x3466	; 0x3466 <_ZN9Pololu3pi4initEjh>
    34d0:	08 95       	ret

000034d2 <pololu_3pi_init>:
    34d2:	60 e0       	ldi	r22, 0x00	; 0
    34d4:	0e 94 33 1a 	call	0x3466	; 0x3466 <_ZN9Pololu3pi4initEjh>
    34d8:	08 95       	ret

000034da <_ZN9Pololu3pi15readLineSensorsEPjh>:
    34da:	9c 01       	movw	r18, r24
    34dc:	46 2f       	mov	r20, r22
    34de:	83 ec       	ldi	r24, 0xC3	; 195
    34e0:	92 e0       	ldi	r25, 0x02	; 2
    34e2:	b9 01       	movw	r22, r18
    34e4:	0e 94 29 1e 	call	0x3c52	; 0x3c52 <_ZN16PololuQTRSensors4readEPjh>
    34e8:	08 95       	ret

000034ea <_ZN9Pololu3pi10emittersOnEv>:
    34ea:	83 ec       	ldi	r24, 0xC3	; 195
    34ec:	92 e0       	ldi	r25, 0x02	; 2
    34ee:	0e 94 65 1b 	call	0x36ca	; 0x36ca <_ZN16PololuQTRSensors10emittersOnEv>
    34f2:	08 95       	ret

000034f4 <_ZN9Pololu3pi11emittersOffEv>:
    34f4:	83 ec       	ldi	r24, 0xC3	; 195
    34f6:	92 e0       	ldi	r25, 0x02	; 2
    34f8:	0e 94 49 1b 	call	0x3692	; 0x3692 <_ZN16PololuQTRSensors11emittersOffEv>
    34fc:	08 95       	ret

000034fe <_ZN9Pololu3pi20calibrateLineSensorsEh>:
    34fe:	83 ec       	ldi	r24, 0xC3	; 195
    3500:	92 e0       	ldi	r25, 0x02	; 2
    3502:	0e 94 0e 21 	call	0x421c	; 0x421c <_ZN16PololuQTRSensors9calibrateEh>
    3506:	08 95       	ret

00003508 <_ZN9Pololu3pi27lineSensorsResetCalibrationEv>:
    3508:	83 ec       	ldi	r24, 0xC3	; 195
    350a:	92 e0       	ldi	r25, 0x02	; 2
    350c:	0e 94 80 1b 	call	0x3700	; 0x3700 <_ZN16PololuQTRSensors16resetCalibrationEv>
    3510:	08 95       	ret

00003512 <_ZN9Pololu3pi25readLineSensorsCalibratedEPjh>:
    3512:	83 ec       	ldi	r24, 0xC3	; 195
    3514:	92 e0       	ldi	r25, 0x02	; 2
    3516:	0e 94 88 1e 	call	0x3d10	; 0x3d10 <_ZN16PololuQTRSensors14readCalibratedEPjh>
    351a:	08 95       	ret

0000351c <_ZN9Pololu3pi8readLineEPjhh>:
    351c:	83 ec       	ldi	r24, 0xC3	; 195
    351e:	92 e0       	ldi	r25, 0x02	; 2
    3520:	0e 94 4c 1f 	call	0x3e98	; 0x3e98 <_ZN16PololuQTRSensors8readLineEPjhh>
    3524:	08 95       	ret

00003526 <_ZN9Pololu3pi33getLineSensorsCalibratedMinimumOnEv>:
    3526:	80 91 c3 02 	lds	r24, 0x02C3
    352a:	90 91 c4 02 	lds	r25, 0x02C4
    352e:	08 95       	ret

00003530 <_ZN9Pololu3pi33getLineSensorsCalibratedMaximumOnEv>:
    3530:	80 91 c5 02 	lds	r24, 0x02C5
    3534:	90 91 c6 02 	lds	r25, 0x02C6
    3538:	08 95       	ret

0000353a <_ZN9Pololu3pi34getLineSensorsCalibratedMinimumOffEv>:
    353a:	80 91 c7 02 	lds	r24, 0x02C7
    353e:	90 91 c8 02 	lds	r25, 0x02C8
    3542:	08 95       	ret

00003544 <_ZN9Pololu3pi34getLineSensorsCalibratedMaximumOffEv>:
    3544:	80 91 c9 02 	lds	r24, 0x02C9
    3548:	90 91 ca 02 	lds	r25, 0x02CA
    354c:	08 95       	ret

0000354e <_GLOBAL__I_pololu_3pi_init>:
    354e:	08 95       	ret

00003550 <_GLOBAL__D_pololu_3pi_init>:
    3550:	83 ec       	ldi	r24, 0xC3	; 195
    3552:	92 e0       	ldi	r25, 0x02	; 2
    3554:	0e 94 44 21 	call	0x4288	; 0x4288 <_ZN16PololuQTRSensorsD1Ev>
    3558:	08 95       	ret

0000355a <delayMicroseconds>:
    355a:	6f 93       	push	r22
    355c:	64 e0       	ldi	r22, 0x04	; 4
    355e:	6a 95       	dec	r22
    3560:	f1 f7       	brne	.-4      	; 0x355e <delayMicroseconds+0x4>
    3562:	6f 91       	pop	r22
    3564:	01 97       	sbiw	r24, 0x01	; 1
    3566:	c9 f7       	brne	.-14     	; 0x355a <delayMicroseconds>
    3568:	08 95       	ret
    356a:	fc 01       	movw	r30, r24
    356c:	11 82       	std	Z+1, r1	; 0x01
    356e:	10 82       	st	Z, r1
    3570:	13 82       	std	Z+3, r1	; 0x03
    3572:	12 82       	std	Z+2, r1	; 0x02
    3574:	15 82       	std	Z+5, r1	; 0x05
    3576:	14 82       	std	Z+4, r1	; 0x04
    3578:	16 82       	std	Z+6, r1	; 0x06
    357a:	68 30       	cpi	r22, 0x08	; 8
    357c:	68 f4       	brcc	.+26     	; 0x3598 <delayMicroseconds+0x3e>
    357e:	89 e2       	ldi	r24, 0x29	; 41
    3580:	90 e0       	ldi	r25, 0x00	; 0
    3582:	91 83       	std	Z+1, r25	; 0x01
    3584:	80 83       	st	Z, r24
    3586:	8b e2       	ldi	r24, 0x2B	; 43
    3588:	90 e0       	ldi	r25, 0x00	; 0
    358a:	93 83       	std	Z+3, r25	; 0x03
    358c:	82 83       	std	Z+2, r24	; 0x02
    358e:	8a e2       	ldi	r24, 0x2A	; 42
    3590:	90 e0       	ldi	r25, 0x00	; 0
    3592:	95 83       	std	Z+5, r25	; 0x05
    3594:	84 83       	std	Z+4, r24	; 0x04
    3596:	11 c0       	rjmp	.+34     	; 0x35ba <delayMicroseconds+0x60>
    3598:	6e 30       	cpi	r22, 0x0E	; 14
    359a:	c0 f4       	brcc	.+48     	; 0x35cc <delayMicroseconds+0x72>
    359c:	83 e2       	ldi	r24, 0x23	; 35
    359e:	90 e0       	ldi	r25, 0x00	; 0
    35a0:	91 83       	std	Z+1, r25	; 0x01
    35a2:	80 83       	st	Z, r24
    35a4:	85 e2       	ldi	r24, 0x25	; 37
    35a6:	90 e0       	ldi	r25, 0x00	; 0
    35a8:	93 83       	std	Z+3, r25	; 0x03
    35aa:	82 83       	std	Z+2, r24	; 0x02
    35ac:	84 e2       	ldi	r24, 0x24	; 36
    35ae:	90 e0       	ldi	r25, 0x00	; 0
    35b0:	95 83       	std	Z+5, r25	; 0x05
    35b2:	84 83       	std	Z+4, r24	; 0x04
    35b4:	70 e0       	ldi	r23, 0x00	; 0
    35b6:	68 50       	subi	r22, 0x08	; 8
    35b8:	70 40       	sbci	r23, 0x00	; 0
    35ba:	81 e0       	ldi	r24, 0x01	; 1
    35bc:	90 e0       	ldi	r25, 0x00	; 0
    35be:	02 c0       	rjmp	.+4      	; 0x35c4 <delayMicroseconds+0x6a>
    35c0:	88 0f       	add	r24, r24
    35c2:	99 1f       	adc	r25, r25
    35c4:	6a 95       	dec	r22
    35c6:	e2 f7       	brpl	.-8      	; 0x35c0 <delayMicroseconds+0x66>
    35c8:	86 83       	std	Z+6, r24	; 0x06
    35ca:	08 95       	ret
    35cc:	65 31       	cpi	r22, 0x15	; 21
    35ce:	b8 f4       	brcc	.+46     	; 0x35fe <delayMicroseconds+0xa4>
    35d0:	86 e2       	ldi	r24, 0x26	; 38
    35d2:	90 e0       	ldi	r25, 0x00	; 0
    35d4:	91 83       	std	Z+1, r25	; 0x01
    35d6:	80 83       	st	Z, r24
    35d8:	88 e2       	ldi	r24, 0x28	; 40
    35da:	90 e0       	ldi	r25, 0x00	; 0
    35dc:	93 83       	std	Z+3, r25	; 0x03
    35de:	82 83       	std	Z+2, r24	; 0x02
    35e0:	87 e2       	ldi	r24, 0x27	; 39
    35e2:	90 e0       	ldi	r25, 0x00	; 0
    35e4:	95 83       	std	Z+5, r25	; 0x05
    35e6:	84 83       	std	Z+4, r24	; 0x04
    35e8:	70 e0       	ldi	r23, 0x00	; 0
    35ea:	6e 50       	subi	r22, 0x0E	; 14
    35ec:	70 40       	sbci	r23, 0x00	; 0
    35ee:	81 e0       	ldi	r24, 0x01	; 1
    35f0:	90 e0       	ldi	r25, 0x00	; 0
    35f2:	02 c0       	rjmp	.+4      	; 0x35f8 <delayMicroseconds+0x9e>
    35f4:	88 0f       	add	r24, r24
    35f6:	99 1f       	adc	r25, r25
    35f8:	6a 95       	dec	r22
    35fa:	e2 f7       	brpl	.-8      	; 0x35f4 <delayMicroseconds+0x9a>
    35fc:	86 83       	std	Z+6, r24	; 0x06
    35fe:	08 95       	ret

00003600 <qtr_calibrated_minimum_on>:
    3600:	e0 91 09 03 	lds	r30, 0x0309
    3604:	f0 91 0a 03 	lds	r31, 0x030A
    3608:	80 81       	ld	r24, Z
    360a:	91 81       	ldd	r25, Z+1	; 0x01
    360c:	08 95       	ret

0000360e <qtr_calibrated_maximum_on>:
    360e:	e0 91 09 03 	lds	r30, 0x0309
    3612:	f0 91 0a 03 	lds	r31, 0x030A
    3616:	82 81       	ldd	r24, Z+2	; 0x02
    3618:	93 81       	ldd	r25, Z+3	; 0x03
    361a:	08 95       	ret

0000361c <qtr_calibrated_minimum_off>:
    361c:	e0 91 09 03 	lds	r30, 0x0309
    3620:	f0 91 0a 03 	lds	r31, 0x030A
    3624:	84 81       	ldd	r24, Z+4	; 0x04
    3626:	95 81       	ldd	r25, Z+5	; 0x05
    3628:	08 95       	ret

0000362a <qtr_calibrated_maximum_off>:
    362a:	e0 91 09 03 	lds	r30, 0x0309
    362e:	f0 91 0a 03 	lds	r31, 0x030A
    3632:	86 81       	ldd	r24, Z+6	; 0x06
    3634:	97 81       	ldd	r25, Z+7	; 0x07
    3636:	08 95       	ret

00003638 <_ZN16PololuQTRSensors4initEhhh>:
    3638:	a7 e0       	ldi	r26, 0x07	; 7
    363a:	b0 e0       	ldi	r27, 0x00	; 0
    363c:	e2 e2       	ldi	r30, 0x22	; 34
    363e:	fb e1       	ldi	r31, 0x1B	; 27
    3640:	0c 94 ff 21 	jmp	0x43fe	; 0x43fe <__prologue_saves__+0x1c>
    3644:	8c 01       	movw	r16, r24
    3646:	fc 01       	movw	r30, r24
    3648:	11 82       	std	Z+1, r1	; 0x01
    364a:	10 82       	st	Z, r1
    364c:	13 82       	std	Z+3, r1	; 0x03
    364e:	12 82       	std	Z+2, r1	; 0x02
    3650:	15 82       	std	Z+5, r1	; 0x05
    3652:	14 82       	std	Z+4, r1	; 0x04
    3654:	17 82       	std	Z+7, r1	; 0x07
    3656:	16 82       	std	Z+6, r1	; 0x06
    3658:	61 31       	cpi	r22, 0x11	; 17
    365a:	18 f0       	brcs	.+6      	; 0x3662 <_ZN16PololuQTRSensors4initEhhh+0x2a>
    365c:	80 e1       	ldi	r24, 0x10	; 16
    365e:	80 87       	std	Z+8, r24	; 0x08
    3660:	02 c0       	rjmp	.+4      	; 0x3666 <_ZN16PololuQTRSensors4initEhhh+0x2e>
    3662:	fc 01       	movw	r30, r24
    3664:	60 87       	std	Z+8, r22	; 0x08
    3666:	f8 01       	movw	r30, r16
    3668:	20 8b       	std	Z+16, r18	; 0x10
    366a:	ce 01       	movw	r24, r28
    366c:	01 96       	adiw	r24, 0x01	; 1
    366e:	64 2f       	mov	r22, r20
    3670:	0e 94 05 16 	call	0x2c0a	; 0x2c0a <_ZN16OrangutanDigital14getIORegistersEP8IOStructh>
    3674:	8f 81       	ldd	r24, Y+7	; 0x07
    3676:	f8 01       	movw	r30, r16
    3678:	81 87       	std	Z+9, r24	; 0x09
    367a:	8b 81       	ldd	r24, Y+3	; 0x03
    367c:	9c 81       	ldd	r25, Y+4	; 0x04
    367e:	93 87       	std	Z+11, r25	; 0x0b
    3680:	82 87       	std	Z+10, r24	; 0x0a
    3682:	8d 81       	ldd	r24, Y+5	; 0x05
    3684:	9e 81       	ldd	r25, Y+6	; 0x06
    3686:	95 87       	std	Z+13, r25	; 0x0d
    3688:	84 87       	std	Z+12, r24	; 0x0c
    368a:	27 96       	adiw	r28, 0x07	; 7
    368c:	e4 e0       	ldi	r30, 0x04	; 4
    368e:	0c 94 1b 22 	jmp	0x4436	; 0x4436 <__epilogue_restores__+0x1c>

00003692 <_ZN16PololuQTRSensors11emittersOffEv>:
    3692:	fc 01       	movw	r30, r24
    3694:	a4 85       	ldd	r26, Z+12	; 0x0c
    3696:	b5 85       	ldd	r27, Z+13	; 0x0d
    3698:	10 97       	sbiw	r26, 0x00	; 0
    369a:	79 f0       	breq	.+30     	; 0x36ba <_ZN16PololuQTRSensors11emittersOffEv+0x28>
    369c:	8c 91       	ld	r24, X
    369e:	91 85       	ldd	r25, Z+9	; 0x09
    36a0:	89 2b       	or	r24, r25
    36a2:	8c 93       	st	X, r24
    36a4:	a2 85       	ldd	r26, Z+10	; 0x0a
    36a6:	b3 85       	ldd	r27, Z+11	; 0x0b
    36a8:	9c 91       	ld	r25, X
    36aa:	81 85       	ldd	r24, Z+9	; 0x09
    36ac:	80 95       	com	r24
    36ae:	89 23       	and	r24, r25
    36b0:	8c 93       	st	X, r24
    36b2:	88 ec       	ldi	r24, 0xC8	; 200
    36b4:	90 e0       	ldi	r25, 0x00	; 0
    36b6:	0e 94 ad 1a 	call	0x355a	; 0x355a <delayMicroseconds>
    36ba:	08 95       	ret

000036bc <qtr_emitters_off>:
    36bc:	80 91 09 03 	lds	r24, 0x0309
    36c0:	90 91 0a 03 	lds	r25, 0x030A
    36c4:	0e 94 49 1b 	call	0x3692	; 0x3692 <_ZN16PololuQTRSensors11emittersOffEv>
    36c8:	08 95       	ret

000036ca <_ZN16PololuQTRSensors10emittersOnEv>:
    36ca:	fc 01       	movw	r30, r24
    36cc:	a4 85       	ldd	r26, Z+12	; 0x0c
    36ce:	b5 85       	ldd	r27, Z+13	; 0x0d
    36d0:	10 97       	sbiw	r26, 0x00	; 0
    36d2:	71 f0       	breq	.+28     	; 0x36f0 <_ZN16PololuQTRSensors10emittersOnEv+0x26>
    36d4:	8c 91       	ld	r24, X
    36d6:	91 85       	ldd	r25, Z+9	; 0x09
    36d8:	89 2b       	or	r24, r25
    36da:	8c 93       	st	X, r24
    36dc:	a2 85       	ldd	r26, Z+10	; 0x0a
    36de:	b3 85       	ldd	r27, Z+11	; 0x0b
    36e0:	8c 91       	ld	r24, X
    36e2:	91 85       	ldd	r25, Z+9	; 0x09
    36e4:	89 2b       	or	r24, r25
    36e6:	8c 93       	st	X, r24
    36e8:	88 ec       	ldi	r24, 0xC8	; 200
    36ea:	90 e0       	ldi	r25, 0x00	; 0
    36ec:	0e 94 ad 1a 	call	0x355a	; 0x355a <delayMicroseconds>
    36f0:	08 95       	ret

000036f2 <qtr_emitters_on>:
    36f2:	80 91 09 03 	lds	r24, 0x0309
    36f6:	90 91 0a 03 	lds	r25, 0x030A
    36fa:	0e 94 65 1b 	call	0x36ca	; 0x36ca <_ZN16PololuQTRSensors10emittersOnEv>
    36fe:	08 95       	ret

00003700 <_ZN16PololuQTRSensors16resetCalibrationEv>:
    3700:	fc 01       	movw	r30, r24
    3702:	20 e0       	ldi	r18, 0x00	; 0
    3704:	39 c0       	rjmp	.+114    	; 0x3778 <_ZN16PololuQTRSensors16resetCalibrationEv+0x78>
    3706:	80 81       	ld	r24, Z
    3708:	91 81       	ldd	r25, Z+1	; 0x01
    370a:	00 97       	sbiw	r24, 0x00	; 0
    370c:	59 f0       	breq	.+22     	; 0x3724 <_ZN16PololuQTRSensors16resetCalibrationEv+0x24>
    370e:	a2 2f       	mov	r26, r18
    3710:	b0 e0       	ldi	r27, 0x00	; 0
    3712:	aa 0f       	add	r26, r26
    3714:	bb 1f       	adc	r27, r27
    3716:	a8 0f       	add	r26, r24
    3718:	b9 1f       	adc	r27, r25
    371a:	86 85       	ldd	r24, Z+14	; 0x0e
    371c:	97 85       	ldd	r25, Z+15	; 0x0f
    371e:	11 96       	adiw	r26, 0x01	; 1
    3720:	9c 93       	st	X, r25
    3722:	8e 93       	st	-X, r24
    3724:	84 81       	ldd	r24, Z+4	; 0x04
    3726:	95 81       	ldd	r25, Z+5	; 0x05
    3728:	00 97       	sbiw	r24, 0x00	; 0
    372a:	59 f0       	breq	.+22     	; 0x3742 <_ZN16PololuQTRSensors16resetCalibrationEv+0x42>
    372c:	a2 2f       	mov	r26, r18
    372e:	b0 e0       	ldi	r27, 0x00	; 0
    3730:	aa 0f       	add	r26, r26
    3732:	bb 1f       	adc	r27, r27
    3734:	a8 0f       	add	r26, r24
    3736:	b9 1f       	adc	r27, r25
    3738:	86 85       	ldd	r24, Z+14	; 0x0e
    373a:	97 85       	ldd	r25, Z+15	; 0x0f
    373c:	11 96       	adiw	r26, 0x01	; 1
    373e:	9c 93       	st	X, r25
    3740:	8e 93       	st	-X, r24
    3742:	82 81       	ldd	r24, Z+2	; 0x02
    3744:	93 81       	ldd	r25, Z+3	; 0x03
    3746:	00 97       	sbiw	r24, 0x00	; 0
    3748:	49 f0       	breq	.+18     	; 0x375c <_ZN16PololuQTRSensors16resetCalibrationEv+0x5c>
    374a:	a2 2f       	mov	r26, r18
    374c:	b0 e0       	ldi	r27, 0x00	; 0
    374e:	aa 0f       	add	r26, r26
    3750:	bb 1f       	adc	r27, r27
    3752:	a8 0f       	add	r26, r24
    3754:	b9 1f       	adc	r27, r25
    3756:	11 96       	adiw	r26, 0x01	; 1
    3758:	1c 92       	st	X, r1
    375a:	1e 92       	st	-X, r1
    375c:	86 81       	ldd	r24, Z+6	; 0x06
    375e:	97 81       	ldd	r25, Z+7	; 0x07
    3760:	00 97       	sbiw	r24, 0x00	; 0
    3762:	49 f0       	breq	.+18     	; 0x3776 <_ZN16PololuQTRSensors16resetCalibrationEv+0x76>
    3764:	a2 2f       	mov	r26, r18
    3766:	b0 e0       	ldi	r27, 0x00	; 0
    3768:	aa 0f       	add	r26, r26
    376a:	bb 1f       	adc	r27, r27
    376c:	a8 0f       	add	r26, r24
    376e:	b9 1f       	adc	r27, r25
    3770:	11 96       	adiw	r26, 0x01	; 1
    3772:	1c 92       	st	X, r1
    3774:	1e 92       	st	-X, r1
    3776:	2f 5f       	subi	r18, 0xFF	; 255
    3778:	80 85       	ldd	r24, Z+8	; 0x08
    377a:	28 17       	cp	r18, r24
    377c:	20 f2       	brcs	.-120    	; 0x3706 <_ZN16PololuQTRSensors16resetCalibrationEv+0x6>
    377e:	08 95       	ret

00003780 <qtr_reset_calibration>:
    3780:	80 91 09 03 	lds	r24, 0x0309
    3784:	90 91 0a 03 	lds	r25, 0x030A
    3788:	0e 94 80 1b 	call	0x3700	; 0x3700 <_ZN16PololuQTRSensors16resetCalibrationEv>
    378c:	08 95       	ret

0000378e <_ZN18PololuQTRSensorsRC4initEPhhjh>:
    378e:	a7 e0       	ldi	r26, 0x07	; 7
    3790:	b0 e0       	ldi	r27, 0x00	; 0
    3792:	ed ec       	ldi	r30, 0xCD	; 205
    3794:	fb e1       	ldi	r31, 0x1B	; 27
    3796:	0c 94 f1 21 	jmp	0x43e2	; 0x43e2 <__prologue_saves__>
    379a:	7c 01       	movw	r14, r24
    379c:	1b 01       	movw	r2, r22
    379e:	64 2f       	mov	r22, r20
    37a0:	39 01       	movw	r6, r18
    37a2:	40 2f       	mov	r20, r16
    37a4:	20 e0       	ldi	r18, 0x00	; 0
    37a6:	0e 94 1c 1b 	call	0x3638	; 0x3638 <_ZN16PololuQTRSensors4initEhhh>
    37aa:	97 01       	movw	r18, r14
    37ac:	2f 5b       	subi	r18, 0xBF	; 191
    37ae:	3f 4f       	sbci	r19, 0xFF	; 255
    37b0:	f9 01       	movw	r30, r18
    37b2:	10 82       	st	Z, r1
    37b4:	d7 01       	movw	r26, r14
    37b6:	ae 5b       	subi	r26, 0xBE	; 190
    37b8:	bf 4f       	sbci	r27, 0xFF	; 255
    37ba:	1c 92       	st	X, r1
    37bc:	c7 01       	movw	r24, r14
    37be:	8d 5b       	subi	r24, 0xBD	; 189
    37c0:	9f 4f       	sbci	r25, 0xFF	; 255
    37c2:	fc 01       	movw	r30, r24
    37c4:	10 82       	st	Z, r1
    37c6:	f7 01       	movw	r30, r14
    37c8:	77 86       	std	Z+15, r7	; 0x0f
    37ca:	66 86       	std	Z+14, r6	; 0x0e
    37cc:	66 24       	eor	r6, r6
    37ce:	2e 01       	movw	r4, r28
    37d0:	08 94       	sec
    37d2:	41 1c       	adc	r4, r1
    37d4:	51 1c       	adc	r5, r1
    37d6:	6c 01       	movw	r12, r24
    37d8:	5d 01       	movw	r10, r26
    37da:	49 01       	movw	r8, r18
    37dc:	29 c0       	rjmp	.+82     	; 0x3830 <_ZN18PololuQTRSensorsRC4initEPhhjh+0xa2>
    37de:	06 2d       	mov	r16, r6
    37e0:	10 e0       	ldi	r17, 0x00	; 0
    37e2:	f1 01       	movw	r30, r2
    37e4:	e0 0f       	add	r30, r16
    37e6:	f1 1f       	adc	r31, r17
    37e8:	c2 01       	movw	r24, r4
    37ea:	60 81       	ld	r22, Z
    37ec:	0e 94 05 16 	call	0x2c0a	; 0x2c0a <_ZN16OrangutanDigital14getIORegistersEP8IOStructh>
    37f0:	2f 81       	ldd	r18, Y+7	; 0x07
    37f2:	f7 01       	movw	r30, r14
    37f4:	e0 0f       	add	r30, r16
    37f6:	f1 1f       	adc	r31, r17
    37f8:	21 8b       	std	Z+17, r18	; 0x11
    37fa:	89 81       	ldd	r24, Y+1	; 0x01
    37fc:	9a 81       	ldd	r25, Y+2	; 0x02
    37fe:	f8 01       	movw	r30, r16
    3800:	ee 0f       	add	r30, r30
    3802:	ff 1f       	adc	r31, r31
    3804:	ee 0d       	add	r30, r14
    3806:	ff 1d       	adc	r31, r15
    3808:	92 a3       	std	Z+34, r25	; 0x22
    380a:	81 a3       	std	Z+33, r24	; 0x21
    380c:	83 32       	cpi	r24, 0x23	; 35
    380e:	91 05       	cpc	r25, r1
    3810:	11 f4       	brne	.+4      	; 0x3816 <_ZN18PololuQTRSensorsRC4initEPhhjh+0x88>
    3812:	f4 01       	movw	r30, r8
    3814:	09 c0       	rjmp	.+18     	; 0x3828 <_ZN18PololuQTRSensorsRC4initEPhhjh+0x9a>
    3816:	86 32       	cpi	r24, 0x26	; 38
    3818:	91 05       	cpc	r25, r1
    381a:	11 f4       	brne	.+4      	; 0x3820 <_ZN18PololuQTRSensorsRC4initEPhhjh+0x92>
    381c:	f5 01       	movw	r30, r10
    381e:	04 c0       	rjmp	.+8      	; 0x3828 <_ZN18PololuQTRSensorsRC4initEPhhjh+0x9a>
    3820:	89 32       	cpi	r24, 0x29	; 41
    3822:	91 05       	cpc	r25, r1
    3824:	21 f4       	brne	.+8      	; 0x382e <_ZN18PololuQTRSensorsRC4initEPhhjh+0xa0>
    3826:	f6 01       	movw	r30, r12
    3828:	80 81       	ld	r24, Z
    382a:	82 2b       	or	r24, r18
    382c:	80 83       	st	Z, r24
    382e:	63 94       	inc	r6
    3830:	f7 01       	movw	r30, r14
    3832:	80 85       	ldd	r24, Z+8	; 0x08
    3834:	68 16       	cp	r6, r24
    3836:	98 f2       	brcs	.-90     	; 0x37de <_ZN18PololuQTRSensorsRC4initEPhhjh+0x50>
    3838:	27 96       	adiw	r28, 0x07	; 7
    383a:	e2 e1       	ldi	r30, 0x12	; 18
    383c:	0c 94 0d 22 	jmp	0x441a	; 0x441a <__epilogue_restores__>

00003840 <_ZN18PololuQTRSensorsRCC1EPhhjh>:
    3840:	0f 93       	push	r16
    3842:	0e 94 c7 1b 	call	0x378e	; 0x378e <_ZN18PololuQTRSensorsRC4initEPhhjh>
    3846:	0f 91       	pop	r16
    3848:	08 95       	ret

0000384a <qtr_rc_init>:
    384a:	a0 e0       	ldi	r26, 0x00	; 0
    384c:	b0 e0       	ldi	r27, 0x00	; 0
    384e:	eb e2       	ldi	r30, 0x2B	; 43
    3850:	fc e1       	ldi	r31, 0x1C	; 28
    3852:	0c 94 f9 21 	jmp	0x43f2	; 0x43f2 <__prologue_saves__+0x10>
    3856:	7c 01       	movw	r14, r24
    3858:	16 2f       	mov	r17, r22
    385a:	6a 01       	movw	r12, r20
    385c:	02 2f       	mov	r16, r18
    385e:	84 e4       	ldi	r24, 0x44	; 68
    3860:	90 e0       	ldi	r25, 0x00	; 0
    3862:	0e 94 2e 22 	call	0x445c	; 0x445c <malloc>
    3866:	a8 2e       	mov	r10, r24
    3868:	e5 01       	movw	r28, r10
    386a:	5e 01       	movw	r10, r28
    386c:	b9 2e       	mov	r11, r25
    386e:	e5 01       	movw	r28, r10
    3870:	20 97       	sbiw	r28, 0x00	; 0
    3872:	61 f0       	breq	.+24     	; 0x388c <qtr_rc_init+0x42>
    3874:	c5 01       	movw	r24, r10
    3876:	b7 01       	movw	r22, r14
    3878:	41 2f       	mov	r20, r17
    387a:	96 01       	movw	r18, r12
    387c:	0e 94 c7 1b 	call	0x378e	; 0x378e <_ZN18PololuQTRSensorsRC4initEPhhjh>
    3880:	b0 92 0a 03 	sts	0x030A, r11
    3884:	a0 92 09 03 	sts	0x0309, r10
    3888:	81 e0       	ldi	r24, 0x01	; 1
    388a:	01 c0       	rjmp	.+2      	; 0x388e <qtr_rc_init+0x44>
    388c:	80 e0       	ldi	r24, 0x00	; 0
    388e:	cd b7       	in	r28, 0x3d	; 61
    3890:	de b7       	in	r29, 0x3e	; 62
    3892:	ea e0       	ldi	r30, 0x0A	; 10
    3894:	0c 94 15 22 	jmp	0x442a	; 0x442a <__epilogue_restores__+0x10>

00003898 <_ZN18PololuQTRSensorsRC11readPrivateEPj>:
    3898:	a0 e0       	ldi	r26, 0x00	; 0
    389a:	b0 e0       	ldi	r27, 0x00	; 0
    389c:	e2 e5       	ldi	r30, 0x52	; 82
    389e:	fc e1       	ldi	r31, 0x1C	; 28
    38a0:	0c 94 f6 21 	jmp	0x43ec	; 0x43ec <__prologue_saves__+0xa>
    38a4:	ec 01       	movw	r28, r24
    38a6:	5b 01       	movw	r10, r22
    38a8:	fc 01       	movw	r30, r24
    38aa:	ef 5b       	subi	r30, 0xBF	; 191
    38ac:	ff 4f       	sbci	r31, 0xFF	; 255
    38ae:	90 80       	ld	r9, Z
    38b0:	fc 01       	movw	r30, r24
    38b2:	ee 5b       	subi	r30, 0xBE	; 190
    38b4:	ff 4f       	sbci	r31, 0xFF	; 255
    38b6:	80 80       	ld	r8, Z
    38b8:	fc 01       	movw	r30, r24
    38ba:	ed 5b       	subi	r30, 0xBD	; 189
    38bc:	ff 4f       	sbci	r31, 0xFF	; 255
    38be:	70 80       	ld	r7, Z
    38c0:	80 e0       	ldi	r24, 0x00	; 0
    38c2:	09 c0       	rjmp	.+18     	; 0x38d6 <_ZN18PololuQTRSensorsRC11readPrivateEPj+0x3e>
    38c4:	e8 2f       	mov	r30, r24
    38c6:	f0 e0       	ldi	r31, 0x00	; 0
    38c8:	ee 0f       	add	r30, r30
    38ca:	ff 1f       	adc	r31, r31
    38cc:	ea 0d       	add	r30, r10
    38ce:	fb 1d       	adc	r31, r11
    38d0:	11 82       	std	Z+1, r1	; 0x01
    38d2:	10 82       	st	Z, r1
    38d4:	8f 5f       	subi	r24, 0xFF	; 255
    38d6:	98 85       	ldd	r25, Y+8	; 0x08
    38d8:	89 17       	cp	r24, r25
    38da:	a0 f3       	brcs	.-24     	; 0x38c4 <_ZN18PololuQTRSensorsRC11readPrivateEPj+0x2c>
    38dc:	84 b1       	in	r24, 0x04	; 4
    38de:	21 e4       	ldi	r18, 0x41	; 65
    38e0:	e2 2e       	mov	r14, r18
    38e2:	f1 2c       	mov	r15, r1
    38e4:	ec 0e       	add	r14, r28
    38e6:	fd 1e       	adc	r15, r29
    38e8:	d7 01       	movw	r26, r14
    38ea:	9c 91       	ld	r25, X
    38ec:	89 2b       	or	r24, r25
    38ee:	84 b9       	out	0x04, r24	; 4
    38f0:	87 b1       	in	r24, 0x07	; 7
    38f2:	8e 01       	movw	r16, r28
    38f4:	0e 5b       	subi	r16, 0xBE	; 190
    38f6:	1f 4f       	sbci	r17, 0xFF	; 255
    38f8:	f8 01       	movw	r30, r16
    38fa:	90 81       	ld	r25, Z
    38fc:	89 2b       	or	r24, r25
    38fe:	87 b9       	out	0x07, r24	; 7
    3900:	8a b1       	in	r24, 0x0a	; 10
    3902:	93 e4       	ldi	r25, 0x43	; 67
    3904:	c9 2e       	mov	r12, r25
    3906:	d1 2c       	mov	r13, r1
    3908:	cc 0e       	add	r12, r28
    390a:	dd 1e       	adc	r13, r29
    390c:	d6 01       	movw	r26, r12
    390e:	9c 91       	ld	r25, X
    3910:	89 2b       	or	r24, r25
    3912:	8a b9       	out	0x0a, r24	; 10
    3914:	85 b1       	in	r24, 0x05	; 5
    3916:	f7 01       	movw	r30, r14
    3918:	90 81       	ld	r25, Z
    391a:	89 2b       	or	r24, r25
    391c:	85 b9       	out	0x05, r24	; 5
    391e:	88 b1       	in	r24, 0x08	; 8
    3920:	d8 01       	movw	r26, r16
    3922:	9c 91       	ld	r25, X
    3924:	89 2b       	or	r24, r25
    3926:	88 b9       	out	0x08, r24	; 8
    3928:	8b b1       	in	r24, 0x0b	; 11
    392a:	f6 01       	movw	r30, r12
    392c:	90 81       	ld	r25, Z
    392e:	89 2b       	or	r24, r25
    3930:	8b b9       	out	0x0b, r24	; 11
    3932:	8a e0       	ldi	r24, 0x0A	; 10
    3934:	90 e0       	ldi	r25, 0x00	; 0
    3936:	0e 94 ad 1a 	call	0x355a	; 0x355a <delayMicroseconds>
    393a:	94 b1       	in	r25, 0x04	; 4
    393c:	d7 01       	movw	r26, r14
    393e:	8c 91       	ld	r24, X
    3940:	80 95       	com	r24
    3942:	89 23       	and	r24, r25
    3944:	84 b9       	out	0x04, r24	; 4
    3946:	97 b1       	in	r25, 0x07	; 7
    3948:	f8 01       	movw	r30, r16
    394a:	80 81       	ld	r24, Z
    394c:	80 95       	com	r24
    394e:	89 23       	and	r24, r25
    3950:	87 b9       	out	0x07, r24	; 7
    3952:	9a b1       	in	r25, 0x0a	; 10
    3954:	d6 01       	movw	r26, r12
    3956:	8c 91       	ld	r24, X
    3958:	80 95       	com	r24
    395a:	89 23       	and	r24, r25
    395c:	8a b9       	out	0x0a, r24	; 10
    395e:	95 b1       	in	r25, 0x05	; 5
    3960:	f7 01       	movw	r30, r14
    3962:	80 81       	ld	r24, Z
    3964:	80 95       	com	r24
    3966:	89 23       	and	r24, r25
    3968:	85 b9       	out	0x05, r24	; 5
    396a:	98 b1       	in	r25, 0x08	; 8
    396c:	d8 01       	movw	r26, r16
    396e:	8c 91       	ld	r24, X
    3970:	80 95       	com	r24
    3972:	89 23       	and	r24, r25
    3974:	88 b9       	out	0x08, r24	; 8
    3976:	9b b1       	in	r25, 0x0b	; 11
    3978:	f6 01       	movw	r30, r12
    397a:	80 81       	ld	r24, Z
    397c:	80 95       	com	r24
    397e:	89 23       	and	r24, r25
    3980:	8b b9       	out	0x0b, r24	; 11
    3982:	c0 90 b0 00 	lds	r12, 0x00B0
    3986:	e0 90 b1 00 	lds	r14, 0x00B1
    398a:	80 91 b0 00 	lds	r24, 0x00B0
    398e:	83 60       	ori	r24, 0x03	; 3
    3990:	80 93 b0 00 	sts	0x00B0, r24
    3994:	82 e0       	ldi	r24, 0x02	; 2
    3996:	80 93 b1 00 	sts	0x00B1, r24
    399a:	00 91 b2 00 	lds	r16, 0x00B2
    399e:	80 e0       	ldi	r24, 0x00	; 0
    39a0:	90 e0       	ldi	r25, 0x00	; 0
    39a2:	39 c0       	rjmp	.+114    	; 0x3a16 <_ZN18PololuQTRSensorsRC11readPrivateEPj+0x17e>
    39a4:	20 91 b2 00 	lds	r18, 0x00B2
    39a8:	20 1b       	sub	r18, r16
    39aa:	82 0f       	add	r24, r18
    39ac:	91 1d       	adc	r25, r1
    39ae:	02 0f       	add	r16, r18
    39b0:	f3 b0       	in	r15, 0x03	; 3
    39b2:	f9 14       	cp	r15, r9
    39b4:	09 f0       	breq	.+2      	; 0x39b8 <_ZN18PololuQTRSensorsRC11readPrivateEPj+0x120>
    39b6:	4d c0       	rjmp	.+154    	; 0x3a52 <_ZN18PololuQTRSensorsRC11readPrivateEPj+0x1ba>
    39b8:	96 b0       	in	r9, 0x06	; 6
    39ba:	98 14       	cp	r9, r8
    39bc:	09 f0       	breq	.+2      	; 0x39c0 <_ZN18PololuQTRSensorsRC11readPrivateEPj+0x128>
    39be:	49 c0       	rjmp	.+146    	; 0x3a52 <_ZN18PololuQTRSensorsRC11readPrivateEPj+0x1ba>
    39c0:	29 b1       	in	r18, 0x09	; 9
    39c2:	27 15       	cp	r18, r7
    39c4:	09 f0       	breq	.+2      	; 0x39c8 <_ZN18PololuQTRSensorsRC11readPrivateEPj+0x130>
    39c6:	45 c0       	rjmp	.+138    	; 0x3a52 <_ZN18PololuQTRSensorsRC11readPrivateEPj+0x1ba>
    39c8:	24 c0       	rjmp	.+72     	; 0x3a12 <_ZN18PololuQTRSensorsRC11readPrivateEPj+0x17a>
    39ca:	21 2f       	mov	r18, r17
    39cc:	30 e0       	ldi	r19, 0x00	; 0
    39ce:	a9 01       	movw	r20, r18
    39d0:	44 0f       	add	r20, r20
    39d2:	55 1f       	adc	r21, r21
    39d4:	f5 01       	movw	r30, r10
    39d6:	e4 0f       	add	r30, r20
    39d8:	f5 1f       	adc	r31, r21
    39da:	60 81       	ld	r22, Z
    39dc:	71 81       	ldd	r23, Z+1	; 0x01
    39de:	61 15       	cp	r22, r1
    39e0:	71 05       	cpc	r23, r1
    39e2:	99 f4       	brne	.+38     	; 0x3a0a <_ZN18PololuQTRSensorsRC11readPrivateEPj+0x172>
    39e4:	4c 0f       	add	r20, r28
    39e6:	5d 1f       	adc	r21, r29
    39e8:	da 01       	movw	r26, r20
    39ea:	91 96       	adiw	r26, 0x21	; 33
    39ec:	4d 91       	ld	r20, X+
    39ee:	5c 91       	ld	r21, X
    39f0:	92 97       	sbiw	r26, 0x22	; 34
    39f2:	da 01       	movw	r26, r20
    39f4:	4c 91       	ld	r20, X
    39f6:	2c 0f       	add	r18, r28
    39f8:	3d 1f       	adc	r19, r29
    39fa:	d9 01       	movw	r26, r18
    39fc:	51 96       	adiw	r26, 0x11	; 17
    39fe:	2c 91       	ld	r18, X
    3a00:	51 97       	sbiw	r26, 0x11	; 17
    3a02:	42 23       	and	r20, r18
    3a04:	11 f4       	brne	.+4      	; 0x3a0a <_ZN18PololuQTRSensorsRC11readPrivateEPj+0x172>
    3a06:	91 83       	std	Z+1, r25	; 0x01
    3a08:	80 83       	st	Z, r24
    3a0a:	1f 5f       	subi	r17, 0xFF	; 255
    3a0c:	28 85       	ldd	r18, Y+8	; 0x08
    3a0e:	12 17       	cp	r17, r18
    3a10:	e0 f2       	brcs	.-72     	; 0x39ca <_ZN18PololuQTRSensorsRC11readPrivateEPj+0x132>
    3a12:	89 2c       	mov	r8, r9
    3a14:	9f 2c       	mov	r9, r15
    3a16:	2e 85       	ldd	r18, Y+14	; 0x0e
    3a18:	3f 85       	ldd	r19, Y+15	; 0x0f
    3a1a:	82 17       	cp	r24, r18
    3a1c:	93 07       	cpc	r25, r19
    3a1e:	10 f2       	brcs	.-124    	; 0x39a4 <_ZN18PololuQTRSensorsRC11readPrivateEPj+0x10c>
    3a20:	c0 92 b0 00 	sts	0x00B0, r12
    3a24:	e0 92 b1 00 	sts	0x00B1, r14
    3a28:	20 e0       	ldi	r18, 0x00	; 0
    3a2a:	0f c0       	rjmp	.+30     	; 0x3a4a <_ZN18PololuQTRSensorsRC11readPrivateEPj+0x1b2>
    3a2c:	e2 2f       	mov	r30, r18
    3a2e:	f0 e0       	ldi	r31, 0x00	; 0
    3a30:	ee 0f       	add	r30, r30
    3a32:	ff 1f       	adc	r31, r31
    3a34:	ea 0d       	add	r30, r10
    3a36:	fb 1d       	adc	r31, r11
    3a38:	80 81       	ld	r24, Z
    3a3a:	91 81       	ldd	r25, Z+1	; 0x01
    3a3c:	00 97       	sbiw	r24, 0x00	; 0
    3a3e:	21 f4       	brne	.+8      	; 0x3a48 <_ZN18PololuQTRSensorsRC11readPrivateEPj+0x1b0>
    3a40:	8e 85       	ldd	r24, Y+14	; 0x0e
    3a42:	9f 85       	ldd	r25, Y+15	; 0x0f
    3a44:	91 83       	std	Z+1, r25	; 0x01
    3a46:	80 83       	st	Z, r24
    3a48:	2f 5f       	subi	r18, 0xFF	; 255
    3a4a:	88 85       	ldd	r24, Y+8	; 0x08
    3a4c:	28 17       	cp	r18, r24
    3a4e:	70 f3       	brcs	.-36     	; 0x3a2c <_ZN18PololuQTRSensorsRC11readPrivateEPj+0x194>
    3a50:	05 c0       	rjmp	.+10     	; 0x3a5c <_ZN18PololuQTRSensorsRC11readPrivateEPj+0x1c4>
    3a52:	f3 b0       	in	r15, 0x03	; 3
    3a54:	96 b0       	in	r9, 0x06	; 6
    3a56:	79 b0       	in	r7, 0x09	; 9
    3a58:	10 e0       	ldi	r17, 0x00	; 0
    3a5a:	d8 cf       	rjmp	.-80     	; 0x3a0c <_ZN18PololuQTRSensorsRC11readPrivateEPj+0x174>
    3a5c:	cd b7       	in	r28, 0x3d	; 61
    3a5e:	de b7       	in	r29, 0x3e	; 62
    3a60:	ed e0       	ldi	r30, 0x0D	; 13
    3a62:	0c 94 12 22 	jmp	0x4424	; 0x4424 <__epilogue_restores__+0xa>

00003a66 <_ZN22PololuQTRSensorsAnalog4initEPhhhh>:
    3a66:	a1 e0       	ldi	r26, 0x01	; 1
    3a68:	b0 e0       	ldi	r27, 0x00	; 0
    3a6a:	e9 e3       	ldi	r30, 0x39	; 57
    3a6c:	fd e1       	ldi	r31, 0x1D	; 29
    3a6e:	0c 94 fb 21 	jmp	0x43f6	; 0x43f6 <__prologue_saves__+0x14>
    3a72:	6c 01       	movw	r12, r24
    3a74:	16 2f       	mov	r17, r22
    3a76:	64 2f       	mov	r22, r20
    3a78:	f2 2e       	mov	r15, r18
    3a7a:	40 2f       	mov	r20, r16
    3a7c:	21 e0       	ldi	r18, 0x01	; 1
    3a7e:	79 83       	std	Y+1, r23	; 0x01
    3a80:	0e 94 1c 1b 	call	0x3638	; 0x3638 <_ZN16PololuQTRSensors4initEhhh>
    3a84:	f6 01       	movw	r30, r12
    3a86:	f1 a2       	std	Z+33, r15	; 0x21
    3a88:	12 a2       	std	Z+34, r1	; 0x22
    3a8a:	d6 01       	movw	r26, r12
    3a8c:	51 96       	adiw	r26, 0x11	; 17
    3a8e:	79 81       	ldd	r23, Y+1	; 0x01
    3a90:	e1 2f       	mov	r30, r17
    3a92:	f7 2f       	mov	r31, r23
    3a94:	7f 01       	movw	r14, r30
    3a96:	f6 01       	movw	r30, r12
    3a98:	80 85       	ldd	r24, Z+8	; 0x08
    3a9a:	90 e0       	ldi	r25, 0x00	; 0
    3a9c:	41 96       	adiw	r24, 0x11	; 17
    3a9e:	8c 0d       	add	r24, r12
    3aa0:	9d 1d       	adc	r25, r13
    3aa2:	21 e0       	ldi	r18, 0x01	; 1
    3aa4:	30 e0       	ldi	r19, 0x00	; 0
    3aa6:	10 c0       	rjmp	.+32     	; 0x3ac8 <_ZN22PololuQTRSensorsAnalog4initEPhhhh+0x62>
    3aa8:	b7 01       	movw	r22, r14
    3aaa:	f7 01       	movw	r30, r14
    3aac:	41 91       	ld	r20, Z+
    3aae:	7f 01       	movw	r14, r30
    3ab0:	4d 93       	st	X+, r20
    3ab2:	a9 01       	movw	r20, r18
    3ab4:	fb 01       	movw	r30, r22
    3ab6:	00 80       	ld	r0, Z
    3ab8:	02 c0       	rjmp	.+4      	; 0x3abe <_ZN22PololuQTRSensorsAnalog4initEPhhhh+0x58>
    3aba:	44 0f       	add	r20, r20
    3abc:	55 1f       	adc	r21, r21
    3abe:	0a 94       	dec	r0
    3ac0:	e2 f7       	brpl	.-8      	; 0x3aba <_ZN22PololuQTRSensorsAnalog4initEPhhhh+0x54>
    3ac2:	41 2b       	or	r20, r17
    3ac4:	f6 01       	movw	r30, r12
    3ac6:	42 a3       	std	Z+34, r20	; 0x22
    3ac8:	f6 01       	movw	r30, r12
    3aca:	12 a1       	ldd	r17, Z+34	; 0x22
    3acc:	a8 17       	cp	r26, r24
    3ace:	b9 07       	cpc	r27, r25
    3ad0:	59 f7       	brne	.-42     	; 0x3aa8 <_ZN22PololuQTRSensorsAnalog4initEPhhhh+0x42>
    3ad2:	1f 73       	andi	r17, 0x3F	; 63
    3ad4:	12 a3       	std	Z+34, r17	; 0x22
    3ad6:	8f ef       	ldi	r24, 0xFF	; 255
    3ad8:	93 e0       	ldi	r25, 0x03	; 3
    3ada:	97 87       	std	Z+15, r25	; 0x0f
    3adc:	86 87       	std	Z+14, r24	; 0x0e
    3ade:	21 96       	adiw	r28, 0x01	; 1
    3ae0:	e8 e0       	ldi	r30, 0x08	; 8
    3ae2:	0c 94 17 22 	jmp	0x442e	; 0x442e <__epilogue_restores__+0x14>

00003ae6 <_ZN22PololuQTRSensorsAnalogC1EPhhhh>:
    3ae6:	0f 93       	push	r16
    3ae8:	0e 94 33 1d 	call	0x3a66	; 0x3a66 <_ZN22PololuQTRSensorsAnalog4initEPhhhh>
    3aec:	0f 91       	pop	r16
    3aee:	08 95       	ret

00003af0 <qtr_analog_init>:
    3af0:	af 92       	push	r10
    3af2:	bf 92       	push	r11
    3af4:	df 92       	push	r13
    3af6:	ef 92       	push	r14
    3af8:	ff 92       	push	r15
    3afa:	0f 93       	push	r16
    3afc:	1f 93       	push	r17
    3afe:	cf 93       	push	r28
    3b00:	df 93       	push	r29
    3b02:	7c 01       	movw	r14, r24
    3b04:	d6 2e       	mov	r13, r22
    3b06:	14 2f       	mov	r17, r20
    3b08:	02 2f       	mov	r16, r18
    3b0a:	83 e2       	ldi	r24, 0x23	; 35
    3b0c:	90 e0       	ldi	r25, 0x00	; 0
    3b0e:	0e 94 2e 22 	call	0x445c	; 0x445c <malloc>
    3b12:	a8 2e       	mov	r10, r24
    3b14:	e5 01       	movw	r28, r10
    3b16:	5e 01       	movw	r10, r28
    3b18:	b9 2e       	mov	r11, r25
    3b1a:	e5 01       	movw	r28, r10
    3b1c:	20 97       	sbiw	r28, 0x00	; 0
    3b1e:	61 f0       	breq	.+24     	; 0x3b38 <qtr_analog_init+0x48>
    3b20:	c5 01       	movw	r24, r10
    3b22:	b7 01       	movw	r22, r14
    3b24:	4d 2d       	mov	r20, r13
    3b26:	21 2f       	mov	r18, r17
    3b28:	0e 94 33 1d 	call	0x3a66	; 0x3a66 <_ZN22PololuQTRSensorsAnalog4initEPhhhh>
    3b2c:	b0 92 0a 03 	sts	0x030A, r11
    3b30:	a0 92 09 03 	sts	0x0309, r10
    3b34:	81 e0       	ldi	r24, 0x01	; 1
    3b36:	01 c0       	rjmp	.+2      	; 0x3b3a <qtr_analog_init+0x4a>
    3b38:	80 e0       	ldi	r24, 0x00	; 0
    3b3a:	df 91       	pop	r29
    3b3c:	cf 91       	pop	r28
    3b3e:	1f 91       	pop	r17
    3b40:	0f 91       	pop	r16
    3b42:	ff 90       	pop	r15
    3b44:	ef 90       	pop	r14
    3b46:	df 90       	pop	r13
    3b48:	bf 90       	pop	r11
    3b4a:	af 90       	pop	r10
    3b4c:	08 95       	ret

00003b4e <_ZN22PololuQTRSensorsAnalog11readPrivateEPj>:
    3b4e:	ef 92       	push	r14
    3b50:	ff 92       	push	r15
    3b52:	0f 93       	push	r16
    3b54:	1f 93       	push	r17
    3b56:	cf 93       	push	r28
    3b58:	df 93       	push	r29
    3b5a:	fc 01       	movw	r30, r24
    3b5c:	9b 01       	movw	r18, r22
    3b5e:	00 91 7c 00 	lds	r16, 0x007C
    3b62:	10 91 7a 00 	lds	r17, 0x007A
    3b66:	e7 b0       	in	r14, 0x07	; 7
    3b68:	f8 b0       	in	r15, 0x08	; 8
    3b6a:	80 91 7a 00 	lds	r24, 0x007A
    3b6e:	86 fd       	sbrc	r24, 6
    3b70:	fc cf       	rjmp	.-8      	; 0x3b6a <_ZN22PololuQTRSensorsAnalog11readPrivateEPj+0x1c>
    3b72:	80 e0       	ldi	r24, 0x00	; 0
    3b74:	0a c0       	rjmp	.+20     	; 0x3b8a <_ZN22PololuQTRSensorsAnalog11readPrivateEPj+0x3c>
    3b76:	a8 2f       	mov	r26, r24
    3b78:	b0 e0       	ldi	r27, 0x00	; 0
    3b7a:	aa 0f       	add	r26, r26
    3b7c:	bb 1f       	adc	r27, r27
    3b7e:	a2 0f       	add	r26, r18
    3b80:	b3 1f       	adc	r27, r19
    3b82:	11 96       	adiw	r26, 0x01	; 1
    3b84:	1c 92       	st	X, r1
    3b86:	1e 92       	st	-X, r1
    3b88:	8f 5f       	subi	r24, 0xFF	; 255
    3b8a:	90 85       	ldd	r25, Z+8	; 0x08
    3b8c:	89 17       	cp	r24, r25
    3b8e:	98 f3       	brcs	.-26     	; 0x3b76 <_ZN22PololuQTRSensorsAnalog11readPrivateEPj+0x28>
    3b90:	97 b1       	in	r25, 0x07	; 7
    3b92:	82 a1       	ldd	r24, Z+34	; 0x22
    3b94:	80 95       	com	r24
    3b96:	89 23       	and	r24, r25
    3b98:	87 b9       	out	0x07, r24	; 7
    3b9a:	98 b1       	in	r25, 0x08	; 8
    3b9c:	82 a1       	ldd	r24, Z+34	; 0x22
    3b9e:	80 95       	com	r24
    3ba0:	89 23       	and	r24, r25
    3ba2:	88 b9       	out	0x08, r24	; 8
    3ba4:	87 e8       	ldi	r24, 0x87	; 135
    3ba6:	80 93 7a 00 	sts	0x007A, r24
    3baa:	70 e0       	ldi	r23, 0x00	; 0
    3bac:	29 c0       	rjmp	.+82     	; 0x3c00 <_ZN22PololuQTRSensorsAnalog11readPrivateEPj+0xb2>
    3bae:	df 01       	movw	r26, r30
    3bb0:	a6 0f       	add	r26, r22
    3bb2:	b1 1d       	adc	r27, r1
    3bb4:	51 96       	adiw	r26, 0x11	; 17
    3bb6:	8c 91       	ld	r24, X
    3bb8:	51 97       	sbiw	r26, 0x11	; 17
    3bba:	80 64       	ori	r24, 0x40	; 64
    3bbc:	80 93 7c 00 	sts	0x007C, r24
    3bc0:	80 91 7a 00 	lds	r24, 0x007A
    3bc4:	80 64       	ori	r24, 0x40	; 64
    3bc6:	80 93 7a 00 	sts	0x007A, r24
    3bca:	80 91 7a 00 	lds	r24, 0x007A
    3bce:	86 fd       	sbrc	r24, 6
    3bd0:	fc cf       	rjmp	.-8      	; 0x3bca <_ZN22PololuQTRSensorsAnalog11readPrivateEPj+0x7c>
    3bd2:	a6 2f       	mov	r26, r22
    3bd4:	b0 e0       	ldi	r27, 0x00	; 0
    3bd6:	aa 0f       	add	r26, r26
    3bd8:	bb 1f       	adc	r27, r27
    3bda:	a2 0f       	add	r26, r18
    3bdc:	b3 1f       	adc	r27, r19
    3bde:	40 91 78 00 	lds	r20, 0x0078
    3be2:	50 91 79 00 	lds	r21, 0x0079
    3be6:	8d 91       	ld	r24, X+
    3be8:	9c 91       	ld	r25, X
    3bea:	11 97       	sbiw	r26, 0x01	; 1
    3bec:	84 0f       	add	r24, r20
    3bee:	95 1f       	adc	r25, r21
    3bf0:	11 96       	adiw	r26, 0x01	; 1
    3bf2:	9c 93       	st	X, r25
    3bf4:	8e 93       	st	-X, r24
    3bf6:	6f 5f       	subi	r22, 0xFF	; 255
    3bf8:	80 85       	ldd	r24, Z+8	; 0x08
    3bfa:	68 17       	cp	r22, r24
    3bfc:	c0 f2       	brcs	.-80     	; 0x3bae <_ZN22PololuQTRSensorsAnalog11readPrivateEPj+0x60>
    3bfe:	7f 5f       	subi	r23, 0xFF	; 255
    3c00:	81 a1       	ldd	r24, Z+33	; 0x21
    3c02:	78 17       	cp	r23, r24
    3c04:	10 f4       	brcc	.+4      	; 0x3c0a <_ZN22PololuQTRSensorsAnalog11readPrivateEPj+0xbc>
    3c06:	60 e0       	ldi	r22, 0x00	; 0
    3c08:	f7 cf       	rjmp	.-18     	; 0x3bf8 <_ZN22PololuQTRSensorsAnalog11readPrivateEPj+0xaa>
    3c0a:	40 e0       	ldi	r20, 0x00	; 0
    3c0c:	14 c0       	rjmp	.+40     	; 0x3c36 <_ZN22PololuQTRSensorsAnalog11readPrivateEPj+0xe8>
    3c0e:	c4 2f       	mov	r28, r20
    3c10:	d0 e0       	ldi	r29, 0x00	; 0
    3c12:	cc 0f       	add	r28, r28
    3c14:	dd 1f       	adc	r29, r29
    3c16:	c2 0f       	add	r28, r18
    3c18:	d3 1f       	adc	r29, r19
    3c1a:	61 a1       	ldd	r22, Z+33	; 0x21
    3c1c:	70 e0       	ldi	r23, 0x00	; 0
    3c1e:	cb 01       	movw	r24, r22
    3c20:	95 95       	asr	r25
    3c22:	87 95       	ror	r24
    3c24:	a8 81       	ld	r26, Y
    3c26:	b9 81       	ldd	r27, Y+1	; 0x01
    3c28:	8a 0f       	add	r24, r26
    3c2a:	9b 1f       	adc	r25, r27
    3c2c:	0e 94 8d 21 	call	0x431a	; 0x431a <__udivmodhi4>
    3c30:	79 83       	std	Y+1, r23	; 0x01
    3c32:	68 83       	st	Y, r22
    3c34:	4f 5f       	subi	r20, 0xFF	; 255
    3c36:	80 85       	ldd	r24, Z+8	; 0x08
    3c38:	48 17       	cp	r20, r24
    3c3a:	48 f3       	brcs	.-46     	; 0x3c0e <_ZN22PololuQTRSensorsAnalog11readPrivateEPj+0xc0>
    3c3c:	00 93 7c 00 	sts	0x007C, r16
    3c40:	10 93 7a 00 	sts	0x007A, r17
    3c44:	f8 b8       	out	0x08, r15	; 8
    3c46:	e7 b8       	out	0x07, r14	; 7
    3c48:	cd b7       	in	r28, 0x3d	; 61
    3c4a:	de b7       	in	r29, 0x3e	; 62
    3c4c:	e6 e0       	ldi	r30, 0x06	; 6
    3c4e:	0c 94 19 22 	jmp	0x4432	; 0x4432 <__epilogue_restores__+0x18>

00003c52 <_ZN16PololuQTRSensors4readEPjh>:
    3c52:	a0 e2       	ldi	r26, 0x20	; 32
    3c54:	b0 e0       	ldi	r27, 0x00	; 0
    3c56:	ef e2       	ldi	r30, 0x2F	; 47
    3c58:	fe e1       	ldi	r31, 0x1E	; 30
    3c5a:	0c 94 fc 21 	jmp	0x43f8	; 0x43f8 <__prologue_saves__+0x16>
    3c5e:	8c 01       	movw	r16, r24
    3c60:	7b 01       	movw	r14, r22
    3c62:	d4 2e       	mov	r13, r20
    3c64:	84 2f       	mov	r24, r20
    3c66:	81 50       	subi	r24, 0x01	; 1
    3c68:	82 30       	cpi	r24, 0x02	; 2
    3c6a:	18 f4       	brcc	.+6      	; 0x3c72 <_ZN16PololuQTRSensors4readEPjh+0x20>
    3c6c:	c8 01       	movw	r24, r16
    3c6e:	0e 94 65 1b 	call	0x36ca	; 0x36ca <_ZN16PololuQTRSensors10emittersOnEv>
    3c72:	d8 01       	movw	r26, r16
    3c74:	50 96       	adiw	r26, 0x10	; 16
    3c76:	8c 91       	ld	r24, X
    3c78:	50 97       	sbiw	r26, 0x10	; 16
    3c7a:	88 23       	and	r24, r24
    3c7c:	89 f4       	brne	.+34     	; 0x3ca0 <_ZN16PololuQTRSensors4readEPjh+0x4e>
    3c7e:	c8 01       	movw	r24, r16
    3c80:	b7 01       	movw	r22, r14
    3c82:	0e 94 4c 1c 	call	0x3898	; 0x3898 <_ZN18PololuQTRSensorsRC11readPrivateEPj>
    3c86:	c8 01       	movw	r24, r16
    3c88:	0e 94 49 1b 	call	0x3692	; 0x3692 <_ZN16PololuQTRSensors11emittersOffEv>
    3c8c:	bd 2d       	mov	r27, r13
    3c8e:	b2 30       	cpi	r27, 0x02	; 2
    3c90:	d9 f5       	brne	.+118    	; 0x3d08 <_ZN16PololuQTRSensors4readEPjh+0xb6>
    3c92:	c8 01       	movw	r24, r16
    3c94:	be 01       	movw	r22, r28
    3c96:	6f 5f       	subi	r22, 0xFF	; 255
    3c98:	7f 4f       	sbci	r23, 0xFF	; 255
    3c9a:	0e 94 4c 1c 	call	0x3898	; 0x3898 <_ZN18PololuQTRSensorsRC11readPrivateEPj>
    3c9e:	10 c0       	rjmp	.+32     	; 0x3cc0 <_ZN16PololuQTRSensors4readEPjh+0x6e>
    3ca0:	c8 01       	movw	r24, r16
    3ca2:	b7 01       	movw	r22, r14
    3ca4:	0e 94 a7 1d 	call	0x3b4e	; 0x3b4e <_ZN22PololuQTRSensorsAnalog11readPrivateEPj>
    3ca8:	c8 01       	movw	r24, r16
    3caa:	0e 94 49 1b 	call	0x3692	; 0x3692 <_ZN16PololuQTRSensors11emittersOffEv>
    3cae:	ed 2d       	mov	r30, r13
    3cb0:	e2 30       	cpi	r30, 0x02	; 2
    3cb2:	51 f5       	brne	.+84     	; 0x3d08 <_ZN16PololuQTRSensors4readEPjh+0xb6>
    3cb4:	c8 01       	movw	r24, r16
    3cb6:	be 01       	movw	r22, r28
    3cb8:	6f 5f       	subi	r22, 0xFF	; 255
    3cba:	7f 4f       	sbci	r23, 0xFF	; 255
    3cbc:	0e 94 a7 1d 	call	0x3b4e	; 0x3b4e <_ZN22PololuQTRSensorsAnalog11readPrivateEPj>
    3cc0:	60 e0       	ldi	r22, 0x00	; 0
    3cc2:	ae 01       	movw	r20, r28
    3cc4:	4f 5f       	subi	r20, 0xFF	; 255
    3cc6:	5f 4f       	sbci	r21, 0xFF	; 255
    3cc8:	1b c0       	rjmp	.+54     	; 0x3d00 <_ZN16PololuQTRSensors4readEPjh+0xae>
    3cca:	86 2f       	mov	r24, r22
    3ccc:	90 e0       	ldi	r25, 0x00	; 0
    3cce:	88 0f       	add	r24, r24
    3cd0:	99 1f       	adc	r25, r25
    3cd2:	f7 01       	movw	r30, r14
    3cd4:	e8 0f       	add	r30, r24
    3cd6:	f9 1f       	adc	r31, r25
    3cd8:	84 0f       	add	r24, r20
    3cda:	95 1f       	adc	r25, r21
    3cdc:	d8 01       	movw	r26, r16
    3cde:	1e 96       	adiw	r26, 0x0e	; 14
    3ce0:	2d 91       	ld	r18, X+
    3ce2:	3c 91       	ld	r19, X
    3ce4:	1f 97       	sbiw	r26, 0x0f	; 15
    3ce6:	dc 01       	movw	r26, r24
    3ce8:	8d 91       	ld	r24, X+
    3cea:	9c 91       	ld	r25, X
    3cec:	11 97       	sbiw	r26, 0x01	; 1
    3cee:	28 1b       	sub	r18, r24
    3cf0:	39 0b       	sbc	r19, r25
    3cf2:	80 81       	ld	r24, Z
    3cf4:	91 81       	ldd	r25, Z+1	; 0x01
    3cf6:	82 0f       	add	r24, r18
    3cf8:	93 1f       	adc	r25, r19
    3cfa:	91 83       	std	Z+1, r25	; 0x01
    3cfc:	80 83       	st	Z, r24
    3cfe:	6f 5f       	subi	r22, 0xFF	; 255
    3d00:	f8 01       	movw	r30, r16
    3d02:	80 85       	ldd	r24, Z+8	; 0x08
    3d04:	68 17       	cp	r22, r24
    3d06:	08 f3       	brcs	.-62     	; 0x3cca <_ZN16PololuQTRSensors4readEPjh+0x78>
    3d08:	a0 96       	adiw	r28, 0x20	; 32
    3d0a:	e7 e0       	ldi	r30, 0x07	; 7
    3d0c:	0c 94 18 22 	jmp	0x4430	; 0x4430 <__epilogue_restores__+0x16>

00003d10 <_ZN16PololuQTRSensors14readCalibratedEPjh>:
    3d10:	8f 92       	push	r8
    3d12:	9f 92       	push	r9
    3d14:	af 92       	push	r10
    3d16:	bf 92       	push	r11
    3d18:	cf 92       	push	r12
    3d1a:	df 92       	push	r13
    3d1c:	ff 92       	push	r15
    3d1e:	0f 93       	push	r16
    3d20:	1f 93       	push	r17
    3d22:	cf 93       	push	r28
    3d24:	df 93       	push	r29
    3d26:	ec 01       	movw	r28, r24
    3d28:	c6 2e       	mov	r12, r22
    3d2a:	07 2f       	mov	r16, r23
    3d2c:	f4 2e       	mov	r15, r20
    3d2e:	42 30       	cpi	r20, 0x02	; 2
    3d30:	11 f0       	breq	.+4      	; 0x3d36 <_ZN16PololuQTRSensors14readCalibratedEPjh+0x26>
    3d32:	ff 20       	and	r15, r15
    3d34:	51 f4       	brne	.+20     	; 0x3d4a <_ZN16PololuQTRSensors14readCalibratedEPjh+0x3a>
    3d36:	8c 81       	ldd	r24, Y+4	; 0x04
    3d38:	9d 81       	ldd	r25, Y+5	; 0x05
    3d3a:	00 97       	sbiw	r24, 0x00	; 0
    3d3c:	09 f4       	brne	.+2      	; 0x3d40 <_ZN16PololuQTRSensors14readCalibratedEPjh+0x30>
    3d3e:	a0 c0       	rjmp	.+320    	; 0x3e80 <_ZN16PololuQTRSensors14readCalibratedEPjh+0x170>
    3d40:	8e 81       	ldd	r24, Y+6	; 0x06
    3d42:	9f 81       	ldd	r25, Y+7	; 0x07
    3d44:	00 97       	sbiw	r24, 0x00	; 0
    3d46:	09 f4       	brne	.+2      	; 0x3d4a <_ZN16PololuQTRSensors14readCalibratedEPjh+0x3a>
    3d48:	9b c0       	rjmp	.+310    	; 0x3e80 <_ZN16PololuQTRSensors14readCalibratedEPjh+0x170>
    3d4a:	8f 2d       	mov	r24, r15
    3d4c:	81 50       	subi	r24, 0x01	; 1
    3d4e:	82 30       	cpi	r24, 0x02	; 2
    3d50:	50 f4       	brcc	.+20     	; 0x3d66 <_ZN16PololuQTRSensors14readCalibratedEPjh+0x56>
    3d52:	88 81       	ld	r24, Y
    3d54:	99 81       	ldd	r25, Y+1	; 0x01
    3d56:	00 97       	sbiw	r24, 0x00	; 0
    3d58:	09 f4       	brne	.+2      	; 0x3d5c <_ZN16PololuQTRSensors14readCalibratedEPjh+0x4c>
    3d5a:	92 c0       	rjmp	.+292    	; 0x3e80 <_ZN16PololuQTRSensors14readCalibratedEPjh+0x170>
    3d5c:	8a 81       	ldd	r24, Y+2	; 0x02
    3d5e:	9b 81       	ldd	r25, Y+3	; 0x03
    3d60:	00 97       	sbiw	r24, 0x00	; 0
    3d62:	09 f4       	brne	.+2      	; 0x3d66 <_ZN16PololuQTRSensors14readCalibratedEPjh+0x56>
    3d64:	8d c0       	rjmp	.+282    	; 0x3e80 <_ZN16PololuQTRSensors14readCalibratedEPjh+0x170>
    3d66:	ce 01       	movw	r24, r28
    3d68:	6c 2d       	mov	r22, r12
    3d6a:	70 2f       	mov	r23, r16
    3d6c:	4f 2d       	mov	r20, r15
    3d6e:	0e 94 29 1e 	call	0x3c52	; 0x3c52 <_ZN16PololuQTRSensors4readEPjh>
    3d72:	ac 2c       	mov	r10, r12
    3d74:	b0 2e       	mov	r11, r16
    3d76:	00 e0       	ldi	r16, 0x00	; 0
    3d78:	10 e0       	ldi	r17, 0x00	; 0
    3d7a:	88 24       	eor	r8, r8
    3d7c:	99 24       	eor	r9, r9
    3d7e:	7a c0       	rjmp	.+244    	; 0x3e74 <_ZN16PololuQTRSensors14readCalibratedEPjh+0x164>
    3d80:	8f 2d       	mov	r24, r15
    3d82:	81 30       	cpi	r24, 0x01	; 1
    3d84:	59 f4       	brne	.+22     	; 0x3d9c <_ZN16PololuQTRSensors14readCalibratedEPjh+0x8c>
    3d86:	ea 81       	ldd	r30, Y+2	; 0x02
    3d88:	fb 81       	ldd	r31, Y+3	; 0x03
    3d8a:	e0 0f       	add	r30, r16
    3d8c:	f1 1f       	adc	r31, r17
    3d8e:	c0 80       	ld	r12, Z
    3d90:	d1 80       	ldd	r13, Z+1	; 0x01
    3d92:	e8 81       	ld	r30, Y
    3d94:	f9 81       	ldd	r31, Y+1	; 0x01
    3d96:	e0 0f       	add	r30, r16
    3d98:	f1 1f       	adc	r31, r17
    3d9a:	0d c0       	rjmp	.+26     	; 0x3db6 <_ZN16PololuQTRSensors14readCalibratedEPjh+0xa6>
    3d9c:	8c 81       	ldd	r24, Y+4	; 0x04
    3d9e:	9d 81       	ldd	r25, Y+5	; 0x05
    3da0:	ff 20       	and	r15, r15
    3da2:	61 f4       	brne	.+24     	; 0x3dbc <_ZN16PololuQTRSensors14readCalibratedEPjh+0xac>
    3da4:	ee 81       	ldd	r30, Y+6	; 0x06
    3da6:	ff 81       	ldd	r31, Y+7	; 0x07
    3da8:	e0 0f       	add	r30, r16
    3daa:	f1 1f       	adc	r31, r17
    3dac:	c0 80       	ld	r12, Z
    3dae:	d1 80       	ldd	r13, Z+1	; 0x01
    3db0:	80 0f       	add	r24, r16
    3db2:	91 1f       	adc	r25, r17
    3db4:	fc 01       	movw	r30, r24
    3db6:	40 81       	ld	r20, Z
    3db8:	51 81       	ldd	r21, Z+1	; 0x01
    3dba:	2b c0       	rjmp	.+86     	; 0x3e12 <_ZN16PololuQTRSensors14readCalibratedEPjh+0x102>
    3dbc:	80 0f       	add	r24, r16
    3dbe:	91 1f       	adc	r25, r17
    3dc0:	fc 01       	movw	r30, r24
    3dc2:	80 81       	ld	r24, Z
    3dc4:	91 81       	ldd	r25, Z+1	; 0x01
    3dc6:	e8 81       	ld	r30, Y
    3dc8:	f9 81       	ldd	r31, Y+1	; 0x01
    3dca:	e0 0f       	add	r30, r16
    3dcc:	f1 1f       	adc	r31, r17
    3dce:	40 81       	ld	r20, Z
    3dd0:	51 81       	ldd	r21, Z+1	; 0x01
    3dd2:	ce 84       	ldd	r12, Y+14	; 0x0e
    3dd4:	df 84       	ldd	r13, Y+15	; 0x0f
    3dd6:	84 17       	cp	r24, r20
    3dd8:	95 07       	cpc	r25, r21
    3dda:	10 f4       	brcc	.+4      	; 0x3de0 <_ZN16PololuQTRSensors14readCalibratedEPjh+0xd0>
    3ddc:	a6 01       	movw	r20, r12
    3dde:	04 c0       	rjmp	.+8      	; 0x3de8 <_ZN16PololuQTRSensors14readCalibratedEPjh+0xd8>
    3de0:	4c 0d       	add	r20, r12
    3de2:	5d 1d       	adc	r21, r13
    3de4:	48 1b       	sub	r20, r24
    3de6:	59 0b       	sbc	r21, r25
    3de8:	ee 81       	ldd	r30, Y+6	; 0x06
    3dea:	ff 81       	ldd	r31, Y+7	; 0x07
    3dec:	e0 0f       	add	r30, r16
    3dee:	f1 1f       	adc	r31, r17
    3df0:	80 81       	ld	r24, Z
    3df2:	91 81       	ldd	r25, Z+1	; 0x01
    3df4:	ea 81       	ldd	r30, Y+2	; 0x02
    3df6:	fb 81       	ldd	r31, Y+3	; 0x03
    3df8:	e0 0f       	add	r30, r16
    3dfa:	f1 1f       	adc	r31, r17
    3dfc:	20 81       	ld	r18, Z
    3dfe:	31 81       	ldd	r19, Z+1	; 0x01
    3e00:	ce 84       	ldd	r12, Y+14	; 0x0e
    3e02:	df 84       	ldd	r13, Y+15	; 0x0f
    3e04:	82 17       	cp	r24, r18
    3e06:	93 07       	cpc	r25, r19
    3e08:	20 f0       	brcs	.+8      	; 0x3e12 <_ZN16PololuQTRSensors14readCalibratedEPjh+0x102>
    3e0a:	c2 0e       	add	r12, r18
    3e0c:	d3 1e       	adc	r13, r19
    3e0e:	c8 1a       	sub	r12, r24
    3e10:	d9 0a       	sbc	r13, r25
    3e12:	c4 1a       	sub	r12, r20
    3e14:	d5 0a       	sbc	r13, r21
    3e16:	d1 f0       	breq	.+52     	; 0x3e4c <_ZN16PololuQTRSensors14readCalibratedEPjh+0x13c>
    3e18:	f5 01       	movw	r30, r10
    3e1a:	60 81       	ld	r22, Z
    3e1c:	71 81       	ldd	r23, Z+1	; 0x01
    3e1e:	80 e0       	ldi	r24, 0x00	; 0
    3e20:	90 e0       	ldi	r25, 0x00	; 0
    3e22:	9a 01       	movw	r18, r20
    3e24:	40 e0       	ldi	r20, 0x00	; 0
    3e26:	50 e0       	ldi	r21, 0x00	; 0
    3e28:	62 1b       	sub	r22, r18
    3e2a:	73 0b       	sbc	r23, r19
    3e2c:	84 0b       	sbc	r24, r20
    3e2e:	95 0b       	sbc	r25, r21
    3e30:	28 ee       	ldi	r18, 0xE8	; 232
    3e32:	33 e0       	ldi	r19, 0x03	; 3
    3e34:	40 e0       	ldi	r20, 0x00	; 0
    3e36:	50 e0       	ldi	r21, 0x00	; 0
    3e38:	0e 94 62 21 	call	0x42c4	; 0x42c4 <__mulsi3>
    3e3c:	96 01       	movw	r18, r12
    3e3e:	40 e0       	ldi	r20, 0x00	; 0
    3e40:	50 e0       	ldi	r21, 0x00	; 0
    3e42:	0e 94 d6 21 	call	0x43ac	; 0x43ac <__divmodsi4>
    3e46:	37 fd       	sbrc	r19, 7
    3e48:	0a c0       	rjmp	.+20     	; 0x3e5e <_ZN16PololuQTRSensors14readCalibratedEPjh+0x14e>
    3e4a:	02 c0       	rjmp	.+4      	; 0x3e50 <_ZN16PololuQTRSensors14readCalibratedEPjh+0x140>
    3e4c:	20 e0       	ldi	r18, 0x00	; 0
    3e4e:	30 e0       	ldi	r19, 0x00	; 0
    3e50:	f3 e0       	ldi	r31, 0x03	; 3
    3e52:	29 3e       	cpi	r18, 0xE9	; 233
    3e54:	3f 07       	cpc	r19, r31
    3e56:	2c f0       	brlt	.+10     	; 0x3e62 <_ZN16PololuQTRSensors14readCalibratedEPjh+0x152>
    3e58:	28 ee       	ldi	r18, 0xE8	; 232
    3e5a:	33 e0       	ldi	r19, 0x03	; 3
    3e5c:	02 c0       	rjmp	.+4      	; 0x3e62 <_ZN16PololuQTRSensors14readCalibratedEPjh+0x152>
    3e5e:	20 e0       	ldi	r18, 0x00	; 0
    3e60:	30 e0       	ldi	r19, 0x00	; 0
    3e62:	f5 01       	movw	r30, r10
    3e64:	21 93       	st	Z+, r18
    3e66:	31 93       	st	Z+, r19
    3e68:	5f 01       	movw	r10, r30
    3e6a:	08 94       	sec
    3e6c:	81 1c       	adc	r8, r1
    3e6e:	91 1c       	adc	r9, r1
    3e70:	0e 5f       	subi	r16, 0xFE	; 254
    3e72:	1f 4f       	sbci	r17, 0xFF	; 255
    3e74:	88 85       	ldd	r24, Y+8	; 0x08
    3e76:	90 e0       	ldi	r25, 0x00	; 0
    3e78:	88 16       	cp	r8, r24
    3e7a:	99 06       	cpc	r9, r25
    3e7c:	0c f4       	brge	.+2      	; 0x3e80 <_ZN16PololuQTRSensors14readCalibratedEPjh+0x170>
    3e7e:	80 cf       	rjmp	.-256    	; 0x3d80 <_ZN16PololuQTRSensors14readCalibratedEPjh+0x70>
    3e80:	df 91       	pop	r29
    3e82:	cf 91       	pop	r28
    3e84:	1f 91       	pop	r17
    3e86:	0f 91       	pop	r16
    3e88:	ff 90       	pop	r15
    3e8a:	df 90       	pop	r13
    3e8c:	cf 90       	pop	r12
    3e8e:	bf 90       	pop	r11
    3e90:	af 90       	pop	r10
    3e92:	9f 90       	pop	r9
    3e94:	8f 90       	pop	r8
    3e96:	08 95       	ret

00003e98 <_ZN16PololuQTRSensors8readLineEPjhh>:
    3e98:	a5 e0       	ldi	r26, 0x05	; 5
    3e9a:	b0 e0       	ldi	r27, 0x00	; 0
    3e9c:	e2 e5       	ldi	r30, 0x52	; 82
    3e9e:	ff e1       	ldi	r31, 0x1F	; 31
    3ea0:	0c 94 f1 21 	jmp	0x43e2	; 0x43e2 <__prologue_saves__>
    3ea4:	4c 01       	movw	r8, r24
    3ea6:	c6 2e       	mov	r12, r22
    3ea8:	e7 2e       	mov	r14, r23
    3eaa:	2d 83       	std	Y+5, r18	; 0x05
    3eac:	0e 94 88 1e 	call	0x3d10	; 0x3d10 <_ZN16PololuQTRSensors14readCalibratedEPjh>
    3eb0:	d4 01       	movw	r26, r8
    3eb2:	18 96       	adiw	r26, 0x08	; 8
    3eb4:	4c 90       	ld	r4, X
    3eb6:	18 97       	sbiw	r26, 0x08	; 8
    3eb8:	de 2c       	mov	r13, r14
    3eba:	64 2d       	mov	r22, r4
    3ebc:	70 e0       	ldi	r23, 0x00	; 0
    3ebe:	80 e0       	ldi	r24, 0x00	; 0
    3ec0:	90 e0       	ldi	r25, 0x00	; 0
    3ec2:	28 ee       	ldi	r18, 0xE8	; 232
    3ec4:	33 e0       	ldi	r19, 0x03	; 3
    3ec6:	40 e0       	ldi	r20, 0x00	; 0
    3ec8:	50 e0       	ldi	r21, 0x00	; 0
    3eca:	0e 94 62 21 	call	0x42c4	; 0x42c4 <__mulsi3>
    3ece:	69 83       	std	Y+1, r22	; 0x01
    3ed0:	7a 83       	std	Y+2, r23	; 0x02
    3ed2:	8b 83       	std	Y+3, r24	; 0x03
    3ed4:	9c 83       	std	Y+4, r25	; 0x04
    3ed6:	ee 24       	eor	r14, r14
    3ed8:	ff 24       	eor	r15, r15
    3eda:	87 01       	movw	r16, r14
    3edc:	66 24       	eor	r6, r6
    3ede:	77 24       	eor	r7, r7
    3ee0:	88 24       	eor	r8, r8
    3ee2:	99 24       	eor	r9, r9
    3ee4:	54 01       	movw	r10, r8
    3ee6:	55 24       	eor	r5, r5
    3ee8:	36 c0       	rjmp	.+108    	; 0x3f56 <_ZN16PololuQTRSensors8readLineEPjhh+0xbe>
    3eea:	f6 01       	movw	r30, r12
    3eec:	30 81       	ld	r19, Z
    3eee:	21 81       	ldd	r18, Z+1	; 0x01
    3ef0:	42 e0       	ldi	r20, 0x02	; 2
    3ef2:	24 2e       	mov	r2, r20
    3ef4:	31 2c       	mov	r3, r1
    3ef6:	c2 0c       	add	r12, r2
    3ef8:	d3 1c       	adc	r13, r3
    3efa:	c9 01       	movw	r24, r18
    3efc:	49 2f       	mov	r20, r25
    3efe:	58 2f       	mov	r21, r24
    3f00:	1a 01       	movw	r2, r20
    3f02:	2d 81       	ldd	r18, Y+5	; 0x05
    3f04:	22 23       	and	r18, r18
    3f06:	29 f0       	breq	.+10     	; 0x3f12 <_ZN16PololuQTRSensors8readLineEPjhh+0x7a>
    3f08:	88 ee       	ldi	r24, 0xE8	; 232
    3f0a:	93 e0       	ldi	r25, 0x03	; 3
    3f0c:	82 19       	sub	r24, r2
    3f0e:	93 09       	sbc	r25, r3
    3f10:	1c 01       	movw	r2, r24
    3f12:	99 ec       	ldi	r25, 0xC9	; 201
    3f14:	29 16       	cp	r2, r25
    3f16:	31 04       	cpc	r3, r1
    3f18:	2c f4       	brge	.+10     	; 0x3f24 <_ZN16PololuQTRSensors8readLineEPjhh+0x8c>
    3f1a:	a3 e3       	ldi	r26, 0x33	; 51
    3f1c:	2a 16       	cp	r2, r26
    3f1e:	31 04       	cpc	r3, r1
    3f20:	94 f0       	brlt	.+36     	; 0x3f46 <_ZN16PololuQTRSensors8readLineEPjhh+0xae>
    3f22:	02 c0       	rjmp	.+4      	; 0x3f28 <_ZN16PololuQTRSensors8readLineEPjhh+0x90>
    3f24:	55 24       	eor	r5, r5
    3f26:	53 94       	inc	r5
    3f28:	b1 01       	movw	r22, r2
    3f2a:	88 27       	eor	r24, r24
    3f2c:	77 fd       	sbrc	r23, 7
    3f2e:	80 95       	com	r24
    3f30:	98 2f       	mov	r25, r24
    3f32:	a8 01       	movw	r20, r16
    3f34:	97 01       	movw	r18, r14
    3f36:	0e 94 62 21 	call	0x42c4	; 0x42c4 <__mulsi3>
    3f3a:	86 0e       	add	r8, r22
    3f3c:	97 1e       	adc	r9, r23
    3f3e:	a8 1e       	adc	r10, r24
    3f40:	b9 1e       	adc	r11, r25
    3f42:	62 0c       	add	r6, r2
    3f44:	73 1c       	adc	r7, r3
    3f46:	88 ee       	ldi	r24, 0xE8	; 232
    3f48:	93 e0       	ldi	r25, 0x03	; 3
    3f4a:	a0 e0       	ldi	r26, 0x00	; 0
    3f4c:	b0 e0       	ldi	r27, 0x00	; 0
    3f4e:	e8 0e       	add	r14, r24
    3f50:	f9 1e       	adc	r15, r25
    3f52:	0a 1f       	adc	r16, r26
    3f54:	1b 1f       	adc	r17, r27
    3f56:	89 81       	ldd	r24, Y+1	; 0x01
    3f58:	9a 81       	ldd	r25, Y+2	; 0x02
    3f5a:	ab 81       	ldd	r26, Y+3	; 0x03
    3f5c:	bc 81       	ldd	r27, Y+4	; 0x04
    3f5e:	e8 16       	cp	r14, r24
    3f60:	f9 06       	cpc	r15, r25
    3f62:	0a 07       	cpc	r16, r26
    3f64:	1b 07       	cpc	r17, r27
    3f66:	09 f6       	brne	.-126    	; 0x3eea <_ZN16PololuQTRSensors8readLineEPjhh+0x52>
    3f68:	55 20       	and	r5, r5
    3f6a:	f1 f4       	brne	.+60     	; 0x3fa8 <_ZN16PololuQTRSensors8readLineEPjhh+0x110>
    3f6c:	55 24       	eor	r5, r5
    3f6e:	08 94       	sec
    3f70:	41 08       	sbc	r4, r1
    3f72:	51 08       	sbc	r5, r1
    3f74:	24 ef       	ldi	r18, 0xF4	; 244
    3f76:	31 e0       	ldi	r19, 0x01	; 1
    3f78:	42 9e       	mul	r4, r18
    3f7a:	c0 01       	movw	r24, r0
    3f7c:	43 9e       	mul	r4, r19
    3f7e:	90 0d       	add	r25, r0
    3f80:	52 9e       	mul	r5, r18
    3f82:	90 0d       	add	r25, r0
    3f84:	11 24       	eor	r1, r1
    3f86:	20 91 07 03 	lds	r18, 0x0307
    3f8a:	30 91 08 03 	lds	r19, 0x0308
    3f8e:	28 17       	cp	r18, r24
    3f90:	39 07       	cpc	r19, r25
    3f92:	b4 f0       	brlt	.+44     	; 0x3fc0 <_ZN16PololuQTRSensors8readLineEPjhh+0x128>
    3f94:	88 ee       	ldi	r24, 0xE8	; 232
    3f96:	93 e0       	ldi	r25, 0x03	; 3
    3f98:	48 9e       	mul	r4, r24
    3f9a:	90 01       	movw	r18, r0
    3f9c:	49 9e       	mul	r4, r25
    3f9e:	30 0d       	add	r19, r0
    3fa0:	58 9e       	mul	r5, r24
    3fa2:	30 0d       	add	r19, r0
    3fa4:	11 24       	eor	r1, r1
    3fa6:	0e c0       	rjmp	.+28     	; 0x3fc4 <_ZN16PololuQTRSensors8readLineEPjhh+0x12c>
    3fa8:	93 01       	movw	r18, r6
    3faa:	40 e0       	ldi	r20, 0x00	; 0
    3fac:	50 e0       	ldi	r21, 0x00	; 0
    3fae:	c5 01       	movw	r24, r10
    3fb0:	b4 01       	movw	r22, r8
    3fb2:	0e 94 b4 21 	call	0x4368	; 0x4368 <__udivmodsi4>
    3fb6:	20 93 07 03 	sts	0x0307, r18
    3fba:	30 93 08 03 	sts	0x0308, r19
    3fbe:	02 c0       	rjmp	.+4      	; 0x3fc4 <_ZN16PololuQTRSensors8readLineEPjhh+0x12c>
    3fc0:	20 e0       	ldi	r18, 0x00	; 0
    3fc2:	30 e0       	ldi	r19, 0x00	; 0
    3fc4:	c9 01       	movw	r24, r18
    3fc6:	25 96       	adiw	r28, 0x05	; 5
    3fc8:	e2 e1       	ldi	r30, 0x12	; 18
    3fca:	0c 94 0d 22 	jmp	0x441a	; 0x441a <__epilogue_restores__>

00003fce <qtr_read_line_white>:
    3fce:	9c 01       	movw	r18, r24
    3fd0:	46 2f       	mov	r20, r22
    3fd2:	80 91 09 03 	lds	r24, 0x0309
    3fd6:	90 91 0a 03 	lds	r25, 0x030A
    3fda:	b9 01       	movw	r22, r18
    3fdc:	21 e0       	ldi	r18, 0x01	; 1
    3fde:	0e 94 4c 1f 	call	0x3e98	; 0x3e98 <_ZN16PololuQTRSensors8readLineEPjhh>
    3fe2:	08 95       	ret

00003fe4 <qtr_read_line>:
    3fe4:	9c 01       	movw	r18, r24
    3fe6:	46 2f       	mov	r20, r22
    3fe8:	80 91 09 03 	lds	r24, 0x0309
    3fec:	90 91 0a 03 	lds	r25, 0x030A
    3ff0:	b9 01       	movw	r22, r18
    3ff2:	20 e0       	ldi	r18, 0x00	; 0
    3ff4:	0e 94 4c 1f 	call	0x3e98	; 0x3e98 <_ZN16PololuQTRSensors8readLineEPjhh>
    3ff8:	08 95       	ret

00003ffa <qtr_read_calibrated>:
    3ffa:	9c 01       	movw	r18, r24
    3ffc:	46 2f       	mov	r20, r22
    3ffe:	80 91 09 03 	lds	r24, 0x0309
    4002:	90 91 0a 03 	lds	r25, 0x030A
    4006:	b9 01       	movw	r22, r18
    4008:	0e 94 88 1e 	call	0x3d10	; 0x3d10 <_ZN16PololuQTRSensors14readCalibratedEPjh>
    400c:	08 95       	ret

0000400e <_ZN16PololuQTRSensors16calibrateOnOrOffEPPjS1_h>:
    400e:	a7 e6       	ldi	r26, 0x67	; 103
    4010:	b0 e0       	ldi	r27, 0x00	; 0
    4012:	ed e0       	ldi	r30, 0x0D	; 13
    4014:	f0 e2       	ldi	r31, 0x20	; 32
    4016:	0c 94 f1 21 	jmp	0x43e2	; 0x43e2 <__prologue_saves__>
    401a:	8c 01       	movw	r16, r24
    401c:	4b 01       	movw	r8, r22
    401e:	6a 01       	movw	r12, r20
    4020:	a6 96       	adiw	r28, 0x26	; 38
    4022:	2f af       	std	Y+63, r18	; 0x3f
    4024:	a6 97       	sbiw	r28, 0x26	; 38
    4026:	da 01       	movw	r26, r20
    4028:	8d 91       	ld	r24, X+
    402a:	9c 91       	ld	r25, X
    402c:	11 97       	sbiw	r26, 0x01	; 1
    402e:	00 97       	sbiw	r24, 0x00	; 0
    4030:	e9 f4       	brne	.+58     	; 0x406c <_ZN16PololuQTRSensors16calibrateOnOrOffEPPjS1_h+0x5e>
    4032:	f8 01       	movw	r30, r16
    4034:	80 85       	ldd	r24, Z+8	; 0x08
    4036:	90 e0       	ldi	r25, 0x00	; 0
    4038:	88 0f       	add	r24, r24
    403a:	99 1f       	adc	r25, r25
    403c:	0e 94 2e 22 	call	0x445c	; 0x445c <malloc>
    4040:	d6 01       	movw	r26, r12
    4042:	11 96       	adiw	r26, 0x01	; 1
    4044:	9c 93       	st	X, r25
    4046:	8e 93       	st	-X, r24
    4048:	00 97       	sbiw	r24, 0x00	; 0
    404a:	09 f4       	brne	.+2      	; 0x404e <_ZN16PololuQTRSensors16calibrateOnOrOffEPPjS1_h+0x40>
    404c:	e2 c0       	rjmp	.+452    	; 0x4212 <_ZN16PololuQTRSensors16calibrateOnOrOffEPPjS1_h+0x204>
    404e:	fc 01       	movw	r30, r24
    4050:	80 e0       	ldi	r24, 0x00	; 0
    4052:	90 e0       	ldi	r25, 0x00	; 0
    4054:	03 c0       	rjmp	.+6      	; 0x405c <_ZN16PololuQTRSensors16calibrateOnOrOffEPPjS1_h+0x4e>
    4056:	11 92       	st	Z+, r1
    4058:	11 92       	st	Z+, r1
    405a:	01 96       	adiw	r24, 0x01	; 1
    405c:	d8 01       	movw	r26, r16
    405e:	18 96       	adiw	r26, 0x08	; 8
    4060:	2c 91       	ld	r18, X
    4062:	18 97       	sbiw	r26, 0x08	; 8
    4064:	30 e0       	ldi	r19, 0x00	; 0
    4066:	82 17       	cp	r24, r18
    4068:	93 07       	cpc	r25, r19
    406a:	ac f3       	brlt	.-22     	; 0x4056 <_ZN16PololuQTRSensors16calibrateOnOrOffEPPjS1_h+0x48>
    406c:	f4 01       	movw	r30, r8
    406e:	80 81       	ld	r24, Z
    4070:	91 81       	ldd	r25, Z+1	; 0x01
    4072:	00 97       	sbiw	r24, 0x00	; 0
    4074:	89 f0       	breq	.+34     	; 0x4098 <_ZN16PololuQTRSensors16calibrateOnOrOffEPPjS1_h+0x8a>
    4076:	ee 24       	eor	r14, r14
    4078:	ff 24       	eor	r15, r15
    407a:	5e 01       	movw	r10, r28
    407c:	08 94       	sec
    407e:	a1 1c       	adc	r10, r1
    4080:	b1 1c       	adc	r11, r1
    4082:	b1 e4       	ldi	r27, 0x41	; 65
    4084:	6b 2e       	mov	r6, r27
    4086:	71 2c       	mov	r7, r1
    4088:	6c 0e       	add	r6, r28
    408a:	7d 1e       	adc	r7, r29
    408c:	a1 e2       	ldi	r26, 0x21	; 33
    408e:	4a 2e       	mov	r4, r26
    4090:	51 2c       	mov	r5, r1
    4092:	4c 0e       	add	r4, r28
    4094:	5d 1e       	adc	r5, r29
    4096:	23 c0       	rjmp	.+70     	; 0x40de <_ZN16PololuQTRSensors16calibrateOnOrOffEPPjS1_h+0xd0>
    4098:	d8 01       	movw	r26, r16
    409a:	18 96       	adiw	r26, 0x08	; 8
    409c:	8c 91       	ld	r24, X
    409e:	90 e0       	ldi	r25, 0x00	; 0
    40a0:	88 0f       	add	r24, r24
    40a2:	99 1f       	adc	r25, r25
    40a4:	0e 94 2e 22 	call	0x445c	; 0x445c <malloc>
    40a8:	f4 01       	movw	r30, r8
    40aa:	91 83       	std	Z+1, r25	; 0x01
    40ac:	80 83       	st	Z, r24
    40ae:	00 97       	sbiw	r24, 0x00	; 0
    40b0:	09 f4       	brne	.+2      	; 0x40b4 <_ZN16PololuQTRSensors16calibrateOnOrOffEPPjS1_h+0xa6>
    40b2:	af c0       	rjmp	.+350    	; 0x4212 <_ZN16PololuQTRSensors16calibrateOnOrOffEPPjS1_h+0x204>
    40b4:	fc 01       	movw	r30, r24
    40b6:	80 e0       	ldi	r24, 0x00	; 0
    40b8:	90 e0       	ldi	r25, 0x00	; 0
    40ba:	d8 01       	movw	r26, r16
    40bc:	07 c0       	rjmp	.+14     	; 0x40cc <_ZN16PololuQTRSensors16calibrateOnOrOffEPPjS1_h+0xbe>
    40be:	1e 96       	adiw	r26, 0x0e	; 14
    40c0:	2d 91       	ld	r18, X+
    40c2:	3c 91       	ld	r19, X
    40c4:	1f 97       	sbiw	r26, 0x0f	; 15
    40c6:	21 93       	st	Z+, r18
    40c8:	31 93       	st	Z+, r19
    40ca:	01 96       	adiw	r24, 0x01	; 1
    40cc:	18 96       	adiw	r26, 0x08	; 8
    40ce:	2c 91       	ld	r18, X
    40d0:	18 97       	sbiw	r26, 0x08	; 8
    40d2:	30 e0       	ldi	r19, 0x00	; 0
    40d4:	82 17       	cp	r24, r18
    40d6:	93 07       	cpc	r25, r19
    40d8:	94 f3       	brlt	.-28     	; 0x40be <_ZN16PololuQTRSensors16calibrateOnOrOffEPPjS1_h+0xb0>
    40da:	8d 01       	movw	r16, r26
    40dc:	cc cf       	rjmp	.-104    	; 0x4076 <_ZN16PololuQTRSensors16calibrateOnOrOffEPPjS1_h+0x68>
    40de:	c8 01       	movw	r24, r16
    40e0:	b5 01       	movw	r22, r10
    40e2:	a6 96       	adiw	r28, 0x26	; 38
    40e4:	4f ad       	ldd	r20, Y+63	; 0x3f
    40e6:	a6 97       	sbiw	r28, 0x26	; 38
    40e8:	0e 94 29 1e 	call	0x3c52	; 0x3c52 <_ZN16PololuQTRSensors4readEPjh>
    40ec:	d8 01       	movw	r26, r16
    40ee:	18 96       	adiw	r26, 0x08	; 8
    40f0:	8c 91       	ld	r24, X
    40f2:	18 97       	sbiw	r26, 0x08	; 8
    40f4:	e8 2f       	mov	r30, r24
    40f6:	f0 e0       	ldi	r31, 0x00	; 0
    40f8:	a5 96       	adiw	r28, 0x25	; 37
    40fa:	ff af       	std	Y+63, r31	; 0x3f
    40fc:	ee af       	std	Y+62, r30	; 0x3e
    40fe:	a5 97       	sbiw	r28, 0x25	; 37
    4100:	13 01       	movw	r2, r6
    4102:	f5 01       	movw	r30, r10
    4104:	a3 96       	adiw	r28, 0x23	; 35
    4106:	5f ae       	std	Y+63, r5	; 0x3f
    4108:	4e ae       	std	Y+62, r4	; 0x3e
    410a:	a3 97       	sbiw	r28, 0x23	; 35
    410c:	93 01       	movw	r18, r6
    410e:	40 e0       	ldi	r20, 0x00	; 0
    4110:	50 e0       	ldi	r21, 0x00	; 0
    4112:	a8 96       	adiw	r28, 0x28	; 40
    4114:	5f ae       	std	Y+63, r5	; 0x3f
    4116:	4e ae       	std	Y+62, r4	; 0x3e
    4118:	a8 97       	sbiw	r28, 0x28	; 40
    411a:	37 c0       	rjmp	.+110    	; 0x418a <_ZN16PololuQTRSensors16calibrateOnOrOffEPPjS1_h+0x17c>
    411c:	e1 14       	cp	r14, r1
    411e:	f1 04       	cpc	r15, r1
    4120:	61 f0       	breq	.+24     	; 0x413a <_ZN16PololuQTRSensors16calibrateOnOrOffEPPjS1_h+0x12c>
    4122:	a8 96       	adiw	r28, 0x28	; 40
    4124:	ae ad       	ldd	r26, Y+62	; 0x3e
    4126:	bf ad       	ldd	r27, Y+63	; 0x3f
    4128:	a8 97       	sbiw	r28, 0x28	; 40
    412a:	6d 91       	ld	r22, X+
    412c:	7c 91       	ld	r23, X
    412e:	11 97       	sbiw	r26, 0x01	; 1
    4130:	80 81       	ld	r24, Z
    4132:	91 81       	ldd	r25, Z+1	; 0x01
    4134:	68 17       	cp	r22, r24
    4136:	79 07       	cpc	r23, r25
    4138:	60 f4       	brcc	.+24     	; 0x4152 <_ZN16PololuQTRSensors16calibrateOnOrOffEPPjS1_h+0x144>
    413a:	80 81       	ld	r24, Z
    413c:	91 81       	ldd	r25, Z+1	; 0x01
    413e:	a8 96       	adiw	r28, 0x28	; 40
    4140:	ae ad       	ldd	r26, Y+62	; 0x3e
    4142:	bf ad       	ldd	r27, Y+63	; 0x3f
    4144:	a8 97       	sbiw	r28, 0x28	; 40
    4146:	11 96       	adiw	r26, 0x01	; 1
    4148:	9c 93       	st	X, r25
    414a:	8e 93       	st	-X, r24
    414c:	e1 14       	cp	r14, r1
    414e:	f1 04       	cpc	r15, r1
    4150:	49 f0       	breq	.+18     	; 0x4164 <_ZN16PololuQTRSensors16calibrateOnOrOffEPPjS1_h+0x156>
    4152:	d9 01       	movw	r26, r18
    4154:	6d 91       	ld	r22, X+
    4156:	7c 91       	ld	r23, X
    4158:	11 97       	sbiw	r26, 0x01	; 1
    415a:	80 81       	ld	r24, Z
    415c:	91 81       	ldd	r25, Z+1	; 0x01
    415e:	86 17       	cp	r24, r22
    4160:	97 07       	cpc	r25, r23
    4162:	28 f4       	brcc	.+10     	; 0x416e <_ZN16PololuQTRSensors16calibrateOnOrOffEPPjS1_h+0x160>
    4164:	80 81       	ld	r24, Z
    4166:	91 81       	ldd	r25, Z+1	; 0x01
    4168:	d9 01       	movw	r26, r18
    416a:	8d 93       	st	X+, r24
    416c:	9c 93       	st	X, r25
    416e:	4f 5f       	subi	r20, 0xFF	; 255
    4170:	5f 4f       	sbci	r21, 0xFF	; 255
    4172:	2e 5f       	subi	r18, 0xFE	; 254
    4174:	3f 4f       	sbci	r19, 0xFF	; 255
    4176:	32 96       	adiw	r30, 0x02	; 2
    4178:	a8 96       	adiw	r28, 0x28	; 40
    417a:	8e ad       	ldd	r24, Y+62	; 0x3e
    417c:	9f ad       	ldd	r25, Y+63	; 0x3f
    417e:	a8 97       	sbiw	r28, 0x28	; 40
    4180:	02 96       	adiw	r24, 0x02	; 2
    4182:	a8 96       	adiw	r28, 0x28	; 40
    4184:	9f af       	std	Y+63, r25	; 0x3f
    4186:	8e af       	std	Y+62, r24	; 0x3e
    4188:	a8 97       	sbiw	r28, 0x28	; 40
    418a:	a5 96       	adiw	r28, 0x25	; 37
    418c:	ae ad       	ldd	r26, Y+62	; 0x3e
    418e:	bf ad       	ldd	r27, Y+63	; 0x3f
    4190:	a5 97       	sbiw	r28, 0x25	; 37
    4192:	4a 17       	cp	r20, r26
    4194:	5b 07       	cpc	r21, r27
    4196:	14 f2       	brlt	.-124    	; 0x411c <_ZN16PololuQTRSensors16calibrateOnOrOffEPPjS1_h+0x10e>
    4198:	08 94       	sec
    419a:	e1 1c       	adc	r14, r1
    419c:	f1 1c       	adc	r15, r1
    419e:	ba e0       	ldi	r27, 0x0A	; 10
    41a0:	eb 16       	cp	r14, r27
    41a2:	f1 04       	cpc	r15, r1
    41a4:	09 f0       	breq	.+2      	; 0x41a8 <_ZN16PololuQTRSensors16calibrateOnOrOffEPPjS1_h+0x19a>
    41a6:	9b cf       	rjmp	.-202    	; 0x40de <_ZN16PololuQTRSensors16calibrateOnOrOffEPPjS1_h+0xd0>
    41a8:	80 e0       	ldi	r24, 0x00	; 0
    41aa:	90 e0       	ldi	r25, 0x00	; 0
    41ac:	2c c0       	rjmp	.+88     	; 0x4206 <_ZN16PololuQTRSensors16calibrateOnOrOffEPPjS1_h+0x1f8>
    41ae:	f1 01       	movw	r30, r2
    41b0:	41 91       	ld	r20, Z+
    41b2:	51 91       	ld	r21, Z+
    41b4:	1f 01       	movw	r2, r30
    41b6:	bc 01       	movw	r22, r24
    41b8:	66 0f       	add	r22, r22
    41ba:	77 1f       	adc	r23, r23
    41bc:	d6 01       	movw	r26, r12
    41be:	ed 91       	ld	r30, X+
    41c0:	fc 91       	ld	r31, X
    41c2:	11 97       	sbiw	r26, 0x01	; 1
    41c4:	e6 0f       	add	r30, r22
    41c6:	f7 1f       	adc	r31, r23
    41c8:	20 81       	ld	r18, Z
    41ca:	31 81       	ldd	r19, Z+1	; 0x01
    41cc:	24 17       	cp	r18, r20
    41ce:	35 07       	cpc	r19, r21
    41d0:	10 f4       	brcc	.+4      	; 0x41d6 <_ZN16PololuQTRSensors16calibrateOnOrOffEPPjS1_h+0x1c8>
    41d2:	51 83       	std	Z+1, r21	; 0x01
    41d4:	40 83       	st	Z, r20
    41d6:	a3 96       	adiw	r28, 0x23	; 35
    41d8:	ee ad       	ldd	r30, Y+62	; 0x3e
    41da:	ff ad       	ldd	r31, Y+63	; 0x3f
    41dc:	a3 97       	sbiw	r28, 0x23	; 35
    41de:	41 91       	ld	r20, Z+
    41e0:	51 91       	ld	r21, Z+
    41e2:	a3 96       	adiw	r28, 0x23	; 35
    41e4:	ff af       	std	Y+63, r31	; 0x3f
    41e6:	ee af       	std	Y+62, r30	; 0x3e
    41e8:	a3 97       	sbiw	r28, 0x23	; 35
    41ea:	d4 01       	movw	r26, r8
    41ec:	ed 91       	ld	r30, X+
    41ee:	fc 91       	ld	r31, X
    41f0:	11 97       	sbiw	r26, 0x01	; 1
    41f2:	e6 0f       	add	r30, r22
    41f4:	f7 1f       	adc	r31, r23
    41f6:	20 81       	ld	r18, Z
    41f8:	31 81       	ldd	r19, Z+1	; 0x01
    41fa:	42 17       	cp	r20, r18
    41fc:	53 07       	cpc	r21, r19
    41fe:	10 f4       	brcc	.+4      	; 0x4204 <_ZN16PololuQTRSensors16calibrateOnOrOffEPPjS1_h+0x1f6>
    4200:	51 83       	std	Z+1, r21	; 0x01
    4202:	40 83       	st	Z, r20
    4204:	01 96       	adiw	r24, 0x01	; 1
    4206:	f8 01       	movw	r30, r16
    4208:	20 85       	ldd	r18, Z+8	; 0x08
    420a:	30 e0       	ldi	r19, 0x00	; 0
    420c:	82 17       	cp	r24, r18
    420e:	93 07       	cpc	r25, r19
    4210:	74 f2       	brlt	.-100    	; 0x41ae <_ZN16PololuQTRSensors16calibrateOnOrOffEPPjS1_h+0x1a0>
    4212:	c9 59       	subi	r28, 0x99	; 153
    4214:	df 4f       	sbci	r29, 0xFF	; 255
    4216:	e2 e1       	ldi	r30, 0x12	; 18
    4218:	0c 94 0d 22 	jmp	0x441a	; 0x441a <__epilogue_restores__>

0000421c <_ZN16PololuQTRSensors9calibrateEh>:
    421c:	1f 93       	push	r17
    421e:	cf 93       	push	r28
    4220:	df 93       	push	r29
    4222:	ec 01       	movw	r28, r24
    4224:	16 2f       	mov	r17, r22
    4226:	86 2f       	mov	r24, r22
    4228:	81 50       	subi	r24, 0x01	; 1
    422a:	82 30       	cpi	r24, 0x02	; 2
    422c:	58 f4       	brcc	.+22     	; 0x4244 <_ZN16PololuQTRSensors9calibrateEh+0x28>
    422e:	ae 01       	movw	r20, r28
    4230:	4e 5f       	subi	r20, 0xFE	; 254
    4232:	5f 4f       	sbci	r21, 0xFF	; 255
    4234:	ce 01       	movw	r24, r28
    4236:	be 01       	movw	r22, r28
    4238:	21 e0       	ldi	r18, 0x01	; 1
    423a:	0e 94 07 20 	call	0x400e	; 0x400e <_ZN16PololuQTRSensors16calibrateOnOrOffEPPjS1_h>
    423e:	12 30       	cpi	r17, 0x02	; 2
    4240:	19 f0       	breq	.+6      	; 0x4248 <_ZN16PololuQTRSensors9calibrateEh+0x2c>
    4242:	0c c0       	rjmp	.+24     	; 0x425c <_ZN16PololuQTRSensors9calibrateEh+0x40>
    4244:	66 23       	and	r22, r22
    4246:	51 f4       	brne	.+20     	; 0x425c <_ZN16PololuQTRSensors9calibrateEh+0x40>
    4248:	be 01       	movw	r22, r28
    424a:	6c 5f       	subi	r22, 0xFC	; 252
    424c:	7f 4f       	sbci	r23, 0xFF	; 255
    424e:	ae 01       	movw	r20, r28
    4250:	4a 5f       	subi	r20, 0xFA	; 250
    4252:	5f 4f       	sbci	r21, 0xFF	; 255
    4254:	ce 01       	movw	r24, r28
    4256:	20 e0       	ldi	r18, 0x00	; 0
    4258:	0e 94 07 20 	call	0x400e	; 0x400e <_ZN16PololuQTRSensors16calibrateOnOrOffEPPjS1_h>
    425c:	df 91       	pop	r29
    425e:	cf 91       	pop	r28
    4260:	1f 91       	pop	r17
    4262:	08 95       	ret

00004264 <qtr_calibrate>:
    4264:	68 2f       	mov	r22, r24
    4266:	80 91 09 03 	lds	r24, 0x0309
    426a:	90 91 0a 03 	lds	r25, 0x030A
    426e:	0e 94 0e 21 	call	0x421c	; 0x421c <_ZN16PololuQTRSensors9calibrateEh>
    4272:	08 95       	ret

00004274 <qtr_read>:
    4274:	9c 01       	movw	r18, r24
    4276:	46 2f       	mov	r20, r22
    4278:	80 91 09 03 	lds	r24, 0x0309
    427c:	90 91 0a 03 	lds	r25, 0x030A
    4280:	b9 01       	movw	r22, r18
    4282:	0e 94 29 1e 	call	0x3c52	; 0x3c52 <_ZN16PololuQTRSensors4readEPjh>
    4286:	08 95       	ret

00004288 <_ZN16PololuQTRSensorsD1Ev>:
    4288:	cf 93       	push	r28
    428a:	df 93       	push	r29
    428c:	ec 01       	movw	r28, r24
    428e:	8a 81       	ldd	r24, Y+2	; 0x02
    4290:	9b 81       	ldd	r25, Y+3	; 0x03
    4292:	00 97       	sbiw	r24, 0x00	; 0
    4294:	11 f0       	breq	.+4      	; 0x429a <_ZN16PololuQTRSensorsD1Ev+0x12>
    4296:	0e 94 c8 22 	call	0x4590	; 0x4590 <free>
    429a:	8e 81       	ldd	r24, Y+6	; 0x06
    429c:	9f 81       	ldd	r25, Y+7	; 0x07
    429e:	00 97       	sbiw	r24, 0x00	; 0
    42a0:	11 f0       	breq	.+4      	; 0x42a6 <_ZN16PololuQTRSensorsD1Ev+0x1e>
    42a2:	0e 94 c8 22 	call	0x4590	; 0x4590 <free>
    42a6:	88 81       	ld	r24, Y
    42a8:	99 81       	ldd	r25, Y+1	; 0x01
    42aa:	00 97       	sbiw	r24, 0x00	; 0
    42ac:	11 f0       	breq	.+4      	; 0x42b2 <_ZN16PololuQTRSensorsD1Ev+0x2a>
    42ae:	0e 94 c8 22 	call	0x4590	; 0x4590 <free>
    42b2:	8c 81       	ldd	r24, Y+4	; 0x04
    42b4:	9d 81       	ldd	r25, Y+5	; 0x05
    42b6:	00 97       	sbiw	r24, 0x00	; 0
    42b8:	11 f0       	breq	.+4      	; 0x42be <_ZN16PololuQTRSensorsD1Ev+0x36>
    42ba:	0e 94 c8 22 	call	0x4590	; 0x4590 <free>
    42be:	df 91       	pop	r29
    42c0:	cf 91       	pop	r28
    42c2:	08 95       	ret

000042c4 <__mulsi3>:
    42c4:	62 9f       	mul	r22, r18
    42c6:	d0 01       	movw	r26, r0
    42c8:	73 9f       	mul	r23, r19
    42ca:	f0 01       	movw	r30, r0
    42cc:	82 9f       	mul	r24, r18
    42ce:	e0 0d       	add	r30, r0
    42d0:	f1 1d       	adc	r31, r1
    42d2:	64 9f       	mul	r22, r20
    42d4:	e0 0d       	add	r30, r0
    42d6:	f1 1d       	adc	r31, r1
    42d8:	92 9f       	mul	r25, r18
    42da:	f0 0d       	add	r31, r0
    42dc:	83 9f       	mul	r24, r19
    42de:	f0 0d       	add	r31, r0
    42e0:	74 9f       	mul	r23, r20
    42e2:	f0 0d       	add	r31, r0
    42e4:	65 9f       	mul	r22, r21
    42e6:	f0 0d       	add	r31, r0
    42e8:	99 27       	eor	r25, r25
    42ea:	72 9f       	mul	r23, r18
    42ec:	b0 0d       	add	r27, r0
    42ee:	e1 1d       	adc	r30, r1
    42f0:	f9 1f       	adc	r31, r25
    42f2:	63 9f       	mul	r22, r19
    42f4:	b0 0d       	add	r27, r0
    42f6:	e1 1d       	adc	r30, r1
    42f8:	f9 1f       	adc	r31, r25
    42fa:	bd 01       	movw	r22, r26
    42fc:	cf 01       	movw	r24, r30
    42fe:	11 24       	eor	r1, r1
    4300:	08 95       	ret

00004302 <__udivmodqi4>:
    4302:	99 1b       	sub	r25, r25
    4304:	79 e0       	ldi	r23, 0x09	; 9
    4306:	04 c0       	rjmp	.+8      	; 0x4310 <__udivmodqi4_ep>

00004308 <__udivmodqi4_loop>:
    4308:	99 1f       	adc	r25, r25
    430a:	96 17       	cp	r25, r22
    430c:	08 f0       	brcs	.+2      	; 0x4310 <__udivmodqi4_ep>
    430e:	96 1b       	sub	r25, r22

00004310 <__udivmodqi4_ep>:
    4310:	88 1f       	adc	r24, r24
    4312:	7a 95       	dec	r23
    4314:	c9 f7       	brne	.-14     	; 0x4308 <__udivmodqi4_loop>
    4316:	80 95       	com	r24
    4318:	08 95       	ret

0000431a <__udivmodhi4>:
    431a:	aa 1b       	sub	r26, r26
    431c:	bb 1b       	sub	r27, r27
    431e:	51 e1       	ldi	r21, 0x11	; 17
    4320:	07 c0       	rjmp	.+14     	; 0x4330 <__udivmodhi4_ep>

00004322 <__udivmodhi4_loop>:
    4322:	aa 1f       	adc	r26, r26
    4324:	bb 1f       	adc	r27, r27
    4326:	a6 17       	cp	r26, r22
    4328:	b7 07       	cpc	r27, r23
    432a:	10 f0       	brcs	.+4      	; 0x4330 <__udivmodhi4_ep>
    432c:	a6 1b       	sub	r26, r22
    432e:	b7 0b       	sbc	r27, r23

00004330 <__udivmodhi4_ep>:
    4330:	88 1f       	adc	r24, r24
    4332:	99 1f       	adc	r25, r25
    4334:	5a 95       	dec	r21
    4336:	a9 f7       	brne	.-22     	; 0x4322 <__udivmodhi4_loop>
    4338:	80 95       	com	r24
    433a:	90 95       	com	r25
    433c:	bc 01       	movw	r22, r24
    433e:	cd 01       	movw	r24, r26
    4340:	08 95       	ret

00004342 <__divmodhi4>:
    4342:	97 fb       	bst	r25, 7
    4344:	09 2e       	mov	r0, r25
    4346:	07 26       	eor	r0, r23
    4348:	0a d0       	rcall	.+20     	; 0x435e <__divmodhi4_neg1>
    434a:	77 fd       	sbrc	r23, 7
    434c:	04 d0       	rcall	.+8      	; 0x4356 <__divmodhi4_neg2>
    434e:	e5 df       	rcall	.-54     	; 0x431a <__udivmodhi4>
    4350:	06 d0       	rcall	.+12     	; 0x435e <__divmodhi4_neg1>
    4352:	00 20       	and	r0, r0
    4354:	1a f4       	brpl	.+6      	; 0x435c <__divmodhi4_exit>

00004356 <__divmodhi4_neg2>:
    4356:	70 95       	com	r23
    4358:	61 95       	neg	r22
    435a:	7f 4f       	sbci	r23, 0xFF	; 255

0000435c <__divmodhi4_exit>:
    435c:	08 95       	ret

0000435e <__divmodhi4_neg1>:
    435e:	f6 f7       	brtc	.-4      	; 0x435c <__divmodhi4_exit>
    4360:	90 95       	com	r25
    4362:	81 95       	neg	r24
    4364:	9f 4f       	sbci	r25, 0xFF	; 255
    4366:	08 95       	ret

00004368 <__udivmodsi4>:
    4368:	a1 e2       	ldi	r26, 0x21	; 33
    436a:	1a 2e       	mov	r1, r26
    436c:	aa 1b       	sub	r26, r26
    436e:	bb 1b       	sub	r27, r27
    4370:	fd 01       	movw	r30, r26
    4372:	0d c0       	rjmp	.+26     	; 0x438e <__udivmodsi4_ep>

00004374 <__udivmodsi4_loop>:
    4374:	aa 1f       	adc	r26, r26
    4376:	bb 1f       	adc	r27, r27
    4378:	ee 1f       	adc	r30, r30
    437a:	ff 1f       	adc	r31, r31
    437c:	a2 17       	cp	r26, r18
    437e:	b3 07       	cpc	r27, r19
    4380:	e4 07       	cpc	r30, r20
    4382:	f5 07       	cpc	r31, r21
    4384:	20 f0       	brcs	.+8      	; 0x438e <__udivmodsi4_ep>
    4386:	a2 1b       	sub	r26, r18
    4388:	b3 0b       	sbc	r27, r19
    438a:	e4 0b       	sbc	r30, r20
    438c:	f5 0b       	sbc	r31, r21

0000438e <__udivmodsi4_ep>:
    438e:	66 1f       	adc	r22, r22
    4390:	77 1f       	adc	r23, r23
    4392:	88 1f       	adc	r24, r24
    4394:	99 1f       	adc	r25, r25
    4396:	1a 94       	dec	r1
    4398:	69 f7       	brne	.-38     	; 0x4374 <__udivmodsi4_loop>
    439a:	60 95       	com	r22
    439c:	70 95       	com	r23
    439e:	80 95       	com	r24
    43a0:	90 95       	com	r25
    43a2:	9b 01       	movw	r18, r22
    43a4:	ac 01       	movw	r20, r24
    43a6:	bd 01       	movw	r22, r26
    43a8:	cf 01       	movw	r24, r30
    43aa:	08 95       	ret

000043ac <__divmodsi4>:
    43ac:	97 fb       	bst	r25, 7
    43ae:	09 2e       	mov	r0, r25
    43b0:	05 26       	eor	r0, r21
    43b2:	0e d0       	rcall	.+28     	; 0x43d0 <__divmodsi4_neg1>
    43b4:	57 fd       	sbrc	r21, 7
    43b6:	04 d0       	rcall	.+8      	; 0x43c0 <__divmodsi4_neg2>
    43b8:	d7 df       	rcall	.-82     	; 0x4368 <__udivmodsi4>
    43ba:	0a d0       	rcall	.+20     	; 0x43d0 <__divmodsi4_neg1>
    43bc:	00 1c       	adc	r0, r0
    43be:	38 f4       	brcc	.+14     	; 0x43ce <__divmodsi4_exit>

000043c0 <__divmodsi4_neg2>:
    43c0:	50 95       	com	r21
    43c2:	40 95       	com	r20
    43c4:	30 95       	com	r19
    43c6:	21 95       	neg	r18
    43c8:	3f 4f       	sbci	r19, 0xFF	; 255
    43ca:	4f 4f       	sbci	r20, 0xFF	; 255
    43cc:	5f 4f       	sbci	r21, 0xFF	; 255

000043ce <__divmodsi4_exit>:
    43ce:	08 95       	ret

000043d0 <__divmodsi4_neg1>:
    43d0:	f6 f7       	brtc	.-4      	; 0x43ce <__divmodsi4_exit>
    43d2:	90 95       	com	r25
    43d4:	80 95       	com	r24
    43d6:	70 95       	com	r23
    43d8:	61 95       	neg	r22
    43da:	7f 4f       	sbci	r23, 0xFF	; 255
    43dc:	8f 4f       	sbci	r24, 0xFF	; 255
    43de:	9f 4f       	sbci	r25, 0xFF	; 255
    43e0:	08 95       	ret

000043e2 <__prologue_saves__>:
    43e2:	2f 92       	push	r2
    43e4:	3f 92       	push	r3
    43e6:	4f 92       	push	r4
    43e8:	5f 92       	push	r5
    43ea:	6f 92       	push	r6
    43ec:	7f 92       	push	r7
    43ee:	8f 92       	push	r8
    43f0:	9f 92       	push	r9
    43f2:	af 92       	push	r10
    43f4:	bf 92       	push	r11
    43f6:	cf 92       	push	r12
    43f8:	df 92       	push	r13
    43fa:	ef 92       	push	r14
    43fc:	ff 92       	push	r15
    43fe:	0f 93       	push	r16
    4400:	1f 93       	push	r17
    4402:	cf 93       	push	r28
    4404:	df 93       	push	r29
    4406:	cd b7       	in	r28, 0x3d	; 61
    4408:	de b7       	in	r29, 0x3e	; 62
    440a:	ca 1b       	sub	r28, r26
    440c:	db 0b       	sbc	r29, r27
    440e:	0f b6       	in	r0, 0x3f	; 63
    4410:	f8 94       	cli
    4412:	de bf       	out	0x3e, r29	; 62
    4414:	0f be       	out	0x3f, r0	; 63
    4416:	cd bf       	out	0x3d, r28	; 61
    4418:	09 94       	ijmp

0000441a <__epilogue_restores__>:
    441a:	2a 88       	ldd	r2, Y+18	; 0x12
    441c:	39 88       	ldd	r3, Y+17	; 0x11
    441e:	48 88       	ldd	r4, Y+16	; 0x10
    4420:	5f 84       	ldd	r5, Y+15	; 0x0f
    4422:	6e 84       	ldd	r6, Y+14	; 0x0e
    4424:	7d 84       	ldd	r7, Y+13	; 0x0d
    4426:	8c 84       	ldd	r8, Y+12	; 0x0c
    4428:	9b 84       	ldd	r9, Y+11	; 0x0b
    442a:	aa 84       	ldd	r10, Y+10	; 0x0a
    442c:	b9 84       	ldd	r11, Y+9	; 0x09
    442e:	c8 84       	ldd	r12, Y+8	; 0x08
    4430:	df 80       	ldd	r13, Y+7	; 0x07
    4432:	ee 80       	ldd	r14, Y+6	; 0x06
    4434:	fd 80       	ldd	r15, Y+5	; 0x05
    4436:	0c 81       	ldd	r16, Y+4	; 0x04
    4438:	1b 81       	ldd	r17, Y+3	; 0x03
    443a:	aa 81       	ldd	r26, Y+2	; 0x02
    443c:	b9 81       	ldd	r27, Y+1	; 0x01
    443e:	ce 0f       	add	r28, r30
    4440:	d1 1d       	adc	r29, r1
    4442:	0f b6       	in	r0, 0x3f	; 63
    4444:	f8 94       	cli
    4446:	de bf       	out	0x3e, r29	; 62
    4448:	0f be       	out	0x3f, r0	; 63
    444a:	cd bf       	out	0x3d, r28	; 61
    444c:	ed 01       	movw	r28, r26
    444e:	08 95       	ret

00004450 <__tablejump2__>:
    4450:	ee 0f       	add	r30, r30
    4452:	ff 1f       	adc	r31, r31

00004454 <__tablejump__>:
    4454:	05 90       	lpm	r0, Z+
    4456:	f4 91       	lpm	r31, Z+
    4458:	e0 2d       	mov	r30, r0
    445a:	09 94       	ijmp

0000445c <malloc>:
    445c:	cf 93       	push	r28
    445e:	df 93       	push	r29
    4460:	82 30       	cpi	r24, 0x02	; 2
    4462:	91 05       	cpc	r25, r1
    4464:	10 f4       	brcc	.+4      	; 0x446a <malloc+0xe>
    4466:	82 e0       	ldi	r24, 0x02	; 2
    4468:	90 e0       	ldi	r25, 0x00	; 0
    446a:	e0 91 d7 06 	lds	r30, 0x06D7
    446e:	f0 91 d8 06 	lds	r31, 0x06D8
    4472:	40 e0       	ldi	r20, 0x00	; 0
    4474:	50 e0       	ldi	r21, 0x00	; 0
    4476:	20 e0       	ldi	r18, 0x00	; 0
    4478:	30 e0       	ldi	r19, 0x00	; 0
    447a:	26 c0       	rjmp	.+76     	; 0x44c8 <malloc+0x6c>
    447c:	60 81       	ld	r22, Z
    447e:	71 81       	ldd	r23, Z+1	; 0x01
    4480:	68 17       	cp	r22, r24
    4482:	79 07       	cpc	r23, r25
    4484:	e0 f0       	brcs	.+56     	; 0x44be <malloc+0x62>
    4486:	68 17       	cp	r22, r24
    4488:	79 07       	cpc	r23, r25
    448a:	81 f4       	brne	.+32     	; 0x44ac <malloc+0x50>
    448c:	82 81       	ldd	r24, Z+2	; 0x02
    448e:	93 81       	ldd	r25, Z+3	; 0x03
    4490:	21 15       	cp	r18, r1
    4492:	31 05       	cpc	r19, r1
    4494:	31 f0       	breq	.+12     	; 0x44a2 <malloc+0x46>
    4496:	d9 01       	movw	r26, r18
    4498:	13 96       	adiw	r26, 0x03	; 3
    449a:	9c 93       	st	X, r25
    449c:	8e 93       	st	-X, r24
    449e:	12 97       	sbiw	r26, 0x02	; 2
    44a0:	2b c0       	rjmp	.+86     	; 0x44f8 <malloc+0x9c>
    44a2:	90 93 d8 06 	sts	0x06D8, r25
    44a6:	80 93 d7 06 	sts	0x06D7, r24
    44aa:	26 c0       	rjmp	.+76     	; 0x44f8 <malloc+0x9c>
    44ac:	41 15       	cp	r20, r1
    44ae:	51 05       	cpc	r21, r1
    44b0:	19 f0       	breq	.+6      	; 0x44b8 <malloc+0x5c>
    44b2:	64 17       	cp	r22, r20
    44b4:	75 07       	cpc	r23, r21
    44b6:	18 f4       	brcc	.+6      	; 0x44be <malloc+0x62>
    44b8:	ab 01       	movw	r20, r22
    44ba:	e9 01       	movw	r28, r18
    44bc:	df 01       	movw	r26, r30
    44be:	9f 01       	movw	r18, r30
    44c0:	72 81       	ldd	r23, Z+2	; 0x02
    44c2:	63 81       	ldd	r22, Z+3	; 0x03
    44c4:	e7 2f       	mov	r30, r23
    44c6:	f6 2f       	mov	r31, r22
    44c8:	30 97       	sbiw	r30, 0x00	; 0
    44ca:	c1 f6       	brne	.-80     	; 0x447c <malloc+0x20>
    44cc:	41 15       	cp	r20, r1
    44ce:	51 05       	cpc	r21, r1
    44d0:	01 f1       	breq	.+64     	; 0x4512 <malloc+0xb6>
    44d2:	48 1b       	sub	r20, r24
    44d4:	59 0b       	sbc	r21, r25
    44d6:	44 30       	cpi	r20, 0x04	; 4
    44d8:	51 05       	cpc	r21, r1
    44da:	80 f4       	brcc	.+32     	; 0x44fc <malloc+0xa0>
    44dc:	12 96       	adiw	r26, 0x02	; 2
    44de:	8d 91       	ld	r24, X+
    44e0:	9c 91       	ld	r25, X
    44e2:	13 97       	sbiw	r26, 0x03	; 3
    44e4:	20 97       	sbiw	r28, 0x00	; 0
    44e6:	19 f0       	breq	.+6      	; 0x44ee <malloc+0x92>
    44e8:	9b 83       	std	Y+3, r25	; 0x03
    44ea:	8a 83       	std	Y+2, r24	; 0x02
    44ec:	04 c0       	rjmp	.+8      	; 0x44f6 <malloc+0x9a>
    44ee:	90 93 d8 06 	sts	0x06D8, r25
    44f2:	80 93 d7 06 	sts	0x06D7, r24
    44f6:	fd 01       	movw	r30, r26
    44f8:	32 96       	adiw	r30, 0x02	; 2
    44fa:	46 c0       	rjmp	.+140    	; 0x4588 <malloc+0x12c>
    44fc:	fd 01       	movw	r30, r26
    44fe:	e4 0f       	add	r30, r20
    4500:	f5 1f       	adc	r31, r21
    4502:	81 93       	st	Z+, r24
    4504:	91 93       	st	Z+, r25
    4506:	42 50       	subi	r20, 0x02	; 2
    4508:	50 40       	sbci	r21, 0x00	; 0
    450a:	11 96       	adiw	r26, 0x01	; 1
    450c:	5c 93       	st	X, r21
    450e:	4e 93       	st	-X, r20
    4510:	3b c0       	rjmp	.+118    	; 0x4588 <malloc+0x12c>
    4512:	20 91 d5 06 	lds	r18, 0x06D5
    4516:	30 91 d6 06 	lds	r19, 0x06D6
    451a:	21 15       	cp	r18, r1
    451c:	31 05       	cpc	r19, r1
    451e:	41 f4       	brne	.+16     	; 0x4530 <malloc+0xd4>
    4520:	20 91 93 02 	lds	r18, 0x0293
    4524:	30 91 94 02 	lds	r19, 0x0294
    4528:	30 93 d6 06 	sts	0x06D6, r19
    452c:	20 93 d5 06 	sts	0x06D5, r18
    4530:	20 91 95 02 	lds	r18, 0x0295
    4534:	30 91 96 02 	lds	r19, 0x0296
    4538:	21 15       	cp	r18, r1
    453a:	31 05       	cpc	r19, r1
    453c:	41 f4       	brne	.+16     	; 0x454e <malloc+0xf2>
    453e:	2d b7       	in	r18, 0x3d	; 61
    4540:	3e b7       	in	r19, 0x3e	; 62
    4542:	40 91 91 02 	lds	r20, 0x0291
    4546:	50 91 92 02 	lds	r21, 0x0292
    454a:	24 1b       	sub	r18, r20
    454c:	35 0b       	sbc	r19, r21
    454e:	e0 91 d5 06 	lds	r30, 0x06D5
    4552:	f0 91 d6 06 	lds	r31, 0x06D6
    4556:	e2 17       	cp	r30, r18
    4558:	f3 07       	cpc	r31, r19
    455a:	a0 f4       	brcc	.+40     	; 0x4584 <malloc+0x128>
    455c:	2e 1b       	sub	r18, r30
    455e:	3f 0b       	sbc	r19, r31
    4560:	28 17       	cp	r18, r24
    4562:	39 07       	cpc	r19, r25
    4564:	78 f0       	brcs	.+30     	; 0x4584 <malloc+0x128>
    4566:	ac 01       	movw	r20, r24
    4568:	4e 5f       	subi	r20, 0xFE	; 254
    456a:	5f 4f       	sbci	r21, 0xFF	; 255
    456c:	24 17       	cp	r18, r20
    456e:	35 07       	cpc	r19, r21
    4570:	48 f0       	brcs	.+18     	; 0x4584 <malloc+0x128>
    4572:	4e 0f       	add	r20, r30
    4574:	5f 1f       	adc	r21, r31
    4576:	50 93 d6 06 	sts	0x06D6, r21
    457a:	40 93 d5 06 	sts	0x06D5, r20
    457e:	81 93       	st	Z+, r24
    4580:	91 93       	st	Z+, r25
    4582:	02 c0       	rjmp	.+4      	; 0x4588 <malloc+0x12c>
    4584:	e0 e0       	ldi	r30, 0x00	; 0
    4586:	f0 e0       	ldi	r31, 0x00	; 0
    4588:	cf 01       	movw	r24, r30
    458a:	df 91       	pop	r29
    458c:	cf 91       	pop	r28
    458e:	08 95       	ret

00004590 <free>:
    4590:	cf 93       	push	r28
    4592:	df 93       	push	r29
    4594:	00 97       	sbiw	r24, 0x00	; 0
    4596:	09 f4       	brne	.+2      	; 0x459a <free+0xa>
    4598:	91 c0       	rjmp	.+290    	; 0x46bc <free+0x12c>
    459a:	fc 01       	movw	r30, r24
    459c:	32 97       	sbiw	r30, 0x02	; 2
    459e:	13 82       	std	Z+3, r1	; 0x03
    45a0:	12 82       	std	Z+2, r1	; 0x02
    45a2:	60 91 d7 06 	lds	r22, 0x06D7
    45a6:	70 91 d8 06 	lds	r23, 0x06D8
    45aa:	61 15       	cp	r22, r1
    45ac:	71 05       	cpc	r23, r1
    45ae:	81 f4       	brne	.+32     	; 0x45d0 <free+0x40>
    45b0:	20 81       	ld	r18, Z
    45b2:	31 81       	ldd	r19, Z+1	; 0x01
    45b4:	28 0f       	add	r18, r24
    45b6:	39 1f       	adc	r19, r25
    45b8:	80 91 d5 06 	lds	r24, 0x06D5
    45bc:	90 91 d6 06 	lds	r25, 0x06D6
    45c0:	82 17       	cp	r24, r18
    45c2:	93 07       	cpc	r25, r19
    45c4:	99 f5       	brne	.+102    	; 0x462c <free+0x9c>
    45c6:	f0 93 d6 06 	sts	0x06D6, r31
    45ca:	e0 93 d5 06 	sts	0x06D5, r30
    45ce:	76 c0       	rjmp	.+236    	; 0x46bc <free+0x12c>
    45d0:	db 01       	movw	r26, r22
    45d2:	80 e0       	ldi	r24, 0x00	; 0
    45d4:	90 e0       	ldi	r25, 0x00	; 0
    45d6:	02 c0       	rjmp	.+4      	; 0x45dc <free+0x4c>
    45d8:	cd 01       	movw	r24, r26
    45da:	d9 01       	movw	r26, r18
    45dc:	ae 17       	cp	r26, r30
    45de:	bf 07       	cpc	r27, r31
    45e0:	48 f4       	brcc	.+18     	; 0x45f4 <free+0x64>
    45e2:	12 96       	adiw	r26, 0x02	; 2
    45e4:	2d 91       	ld	r18, X+
    45e6:	3c 91       	ld	r19, X
    45e8:	13 97       	sbiw	r26, 0x03	; 3
    45ea:	21 15       	cp	r18, r1
    45ec:	31 05       	cpc	r19, r1
    45ee:	a1 f7       	brne	.-24     	; 0x45d8 <free+0x48>
    45f0:	cd 01       	movw	r24, r26
    45f2:	21 c0       	rjmp	.+66     	; 0x4636 <free+0xa6>
    45f4:	b3 83       	std	Z+3, r27	; 0x03
    45f6:	a2 83       	std	Z+2, r26	; 0x02
    45f8:	ef 01       	movw	r28, r30
    45fa:	49 91       	ld	r20, Y+
    45fc:	59 91       	ld	r21, Y+
    45fe:	9e 01       	movw	r18, r28
    4600:	24 0f       	add	r18, r20
    4602:	35 1f       	adc	r19, r21
    4604:	a2 17       	cp	r26, r18
    4606:	b3 07       	cpc	r27, r19
    4608:	79 f4       	brne	.+30     	; 0x4628 <free+0x98>
    460a:	2d 91       	ld	r18, X+
    460c:	3c 91       	ld	r19, X
    460e:	11 97       	sbiw	r26, 0x01	; 1
    4610:	24 0f       	add	r18, r20
    4612:	35 1f       	adc	r19, r21
    4614:	2e 5f       	subi	r18, 0xFE	; 254
    4616:	3f 4f       	sbci	r19, 0xFF	; 255
    4618:	31 83       	std	Z+1, r19	; 0x01
    461a:	20 83       	st	Z, r18
    461c:	12 96       	adiw	r26, 0x02	; 2
    461e:	2d 91       	ld	r18, X+
    4620:	3c 91       	ld	r19, X
    4622:	13 97       	sbiw	r26, 0x03	; 3
    4624:	33 83       	std	Z+3, r19	; 0x03
    4626:	22 83       	std	Z+2, r18	; 0x02
    4628:	00 97       	sbiw	r24, 0x00	; 0
    462a:	29 f4       	brne	.+10     	; 0x4636 <free+0xa6>
    462c:	f0 93 d8 06 	sts	0x06D8, r31
    4630:	e0 93 d7 06 	sts	0x06D7, r30
    4634:	43 c0       	rjmp	.+134    	; 0x46bc <free+0x12c>
    4636:	dc 01       	movw	r26, r24
    4638:	13 96       	adiw	r26, 0x03	; 3
    463a:	fc 93       	st	X, r31
    463c:	ee 93       	st	-X, r30
    463e:	12 97       	sbiw	r26, 0x02	; 2
    4640:	4d 91       	ld	r20, X+
    4642:	5d 91       	ld	r21, X+
    4644:	a4 0f       	add	r26, r20
    4646:	b5 1f       	adc	r27, r21
    4648:	ea 17       	cp	r30, r26
    464a:	fb 07       	cpc	r31, r27
    464c:	69 f4       	brne	.+26     	; 0x4668 <free+0xd8>
    464e:	20 81       	ld	r18, Z
    4650:	31 81       	ldd	r19, Z+1	; 0x01
    4652:	24 0f       	add	r18, r20
    4654:	35 1f       	adc	r19, r21
    4656:	2e 5f       	subi	r18, 0xFE	; 254
    4658:	3f 4f       	sbci	r19, 0xFF	; 255
    465a:	ec 01       	movw	r28, r24
    465c:	39 83       	std	Y+1, r19	; 0x01
    465e:	28 83       	st	Y, r18
    4660:	22 81       	ldd	r18, Z+2	; 0x02
    4662:	33 81       	ldd	r19, Z+3	; 0x03
    4664:	3b 83       	std	Y+3, r19	; 0x03
    4666:	2a 83       	std	Y+2, r18	; 0x02
    4668:	e0 e0       	ldi	r30, 0x00	; 0
    466a:	f0 e0       	ldi	r31, 0x00	; 0
    466c:	02 c0       	rjmp	.+4      	; 0x4672 <free+0xe2>
    466e:	fb 01       	movw	r30, r22
    4670:	bc 01       	movw	r22, r24
    4672:	db 01       	movw	r26, r22
    4674:	12 96       	adiw	r26, 0x02	; 2
    4676:	8d 91       	ld	r24, X+
    4678:	9c 91       	ld	r25, X
    467a:	13 97       	sbiw	r26, 0x03	; 3
    467c:	00 97       	sbiw	r24, 0x00	; 0
    467e:	b9 f7       	brne	.-18     	; 0x466e <free+0xde>
    4680:	9b 01       	movw	r18, r22
    4682:	2e 5f       	subi	r18, 0xFE	; 254
    4684:	3f 4f       	sbci	r19, 0xFF	; 255
    4686:	8d 91       	ld	r24, X+
    4688:	9c 91       	ld	r25, X
    468a:	11 97       	sbiw	r26, 0x01	; 1
    468c:	82 0f       	add	r24, r18
    468e:	93 1f       	adc	r25, r19
    4690:	40 91 d5 06 	lds	r20, 0x06D5
    4694:	50 91 d6 06 	lds	r21, 0x06D6
    4698:	48 17       	cp	r20, r24
    469a:	59 07       	cpc	r21, r25
    469c:	79 f4       	brne	.+30     	; 0x46bc <free+0x12c>
    469e:	30 97       	sbiw	r30, 0x00	; 0
    46a0:	29 f4       	brne	.+10     	; 0x46ac <free+0x11c>
    46a2:	10 92 d8 06 	sts	0x06D8, r1
    46a6:	10 92 d7 06 	sts	0x06D7, r1
    46aa:	02 c0       	rjmp	.+4      	; 0x46b0 <free+0x120>
    46ac:	13 82       	std	Z+3, r1	; 0x03
    46ae:	12 82       	std	Z+2, r1	; 0x02
    46b0:	22 50       	subi	r18, 0x02	; 2
    46b2:	30 40       	sbci	r19, 0x00	; 0
    46b4:	30 93 d6 06 	sts	0x06D6, r19
    46b8:	20 93 d5 06 	sts	0x06D5, r18
    46bc:	df 91       	pop	r29
    46be:	cf 91       	pop	r28
    46c0:	08 95       	ret

000046c2 <fdevopen>:
    46c2:	0f 93       	push	r16
    46c4:	1f 93       	push	r17
    46c6:	cf 93       	push	r28
    46c8:	df 93       	push	r29
    46ca:	8c 01       	movw	r16, r24
    46cc:	eb 01       	movw	r28, r22
    46ce:	00 97       	sbiw	r24, 0x00	; 0
    46d0:	11 f4       	brne	.+4      	; 0x46d6 <fdevopen+0x14>
    46d2:	20 97       	sbiw	r28, 0x00	; 0
    46d4:	c9 f1       	breq	.+114    	; 0x4748 <fdevopen+0x86>
    46d6:	81 e0       	ldi	r24, 0x01	; 1
    46d8:	90 e0       	ldi	r25, 0x00	; 0
    46da:	6e e0       	ldi	r22, 0x0E	; 14
    46dc:	70 e0       	ldi	r23, 0x00	; 0
    46de:	0e 94 a8 25 	call	0x4b50	; 0x4b50 <calloc>
    46e2:	fc 01       	movw	r30, r24
    46e4:	9c 01       	movw	r18, r24
    46e6:	00 97       	sbiw	r24, 0x00	; 0
    46e8:	89 f1       	breq	.+98     	; 0x474c <fdevopen+0x8a>
    46ea:	80 e8       	ldi	r24, 0x80	; 128
    46ec:	83 83       	std	Z+3, r24	; 0x03
    46ee:	20 97       	sbiw	r28, 0x00	; 0
    46f0:	71 f0       	breq	.+28     	; 0x470e <fdevopen+0x4c>
    46f2:	d3 87       	std	Z+11, r29	; 0x0b
    46f4:	c2 87       	std	Z+10, r28	; 0x0a
    46f6:	81 e8       	ldi	r24, 0x81	; 129
    46f8:	83 83       	std	Z+3, r24	; 0x03
    46fa:	80 91 d9 06 	lds	r24, 0x06D9
    46fe:	90 91 da 06 	lds	r25, 0x06DA
    4702:	00 97       	sbiw	r24, 0x00	; 0
    4704:	21 f4       	brne	.+8      	; 0x470e <fdevopen+0x4c>
    4706:	f0 93 da 06 	sts	0x06DA, r31
    470a:	e0 93 d9 06 	sts	0x06D9, r30
    470e:	01 15       	cp	r16, r1
    4710:	11 05       	cpc	r17, r1
    4712:	e1 f0       	breq	.+56     	; 0x474c <fdevopen+0x8a>
    4714:	11 87       	std	Z+9, r17	; 0x09
    4716:	00 87       	std	Z+8, r16	; 0x08
    4718:	83 81       	ldd	r24, Z+3	; 0x03
    471a:	82 60       	ori	r24, 0x02	; 2
    471c:	83 83       	std	Z+3, r24	; 0x03
    471e:	80 91 db 06 	lds	r24, 0x06DB
    4722:	90 91 dc 06 	lds	r25, 0x06DC
    4726:	00 97       	sbiw	r24, 0x00	; 0
    4728:	89 f4       	brne	.+34     	; 0x474c <fdevopen+0x8a>
    472a:	f0 93 dc 06 	sts	0x06DC, r31
    472e:	e0 93 db 06 	sts	0x06DB, r30
    4732:	80 91 dd 06 	lds	r24, 0x06DD
    4736:	90 91 de 06 	lds	r25, 0x06DE
    473a:	00 97       	sbiw	r24, 0x00	; 0
    473c:	39 f4       	brne	.+14     	; 0x474c <fdevopen+0x8a>
    473e:	f0 93 de 06 	sts	0x06DE, r31
    4742:	e0 93 dd 06 	sts	0x06DD, r30
    4746:	02 c0       	rjmp	.+4      	; 0x474c <fdevopen+0x8a>
    4748:	20 e0       	ldi	r18, 0x00	; 0
    474a:	30 e0       	ldi	r19, 0x00	; 0
    474c:	c9 01       	movw	r24, r18
    474e:	df 91       	pop	r29
    4750:	cf 91       	pop	r28
    4752:	1f 91       	pop	r17
    4754:	0f 91       	pop	r16
    4756:	08 95       	ret

00004758 <printf>:
    4758:	a0 e0       	ldi	r26, 0x00	; 0
    475a:	b0 e0       	ldi	r27, 0x00	; 0
    475c:	e2 eb       	ldi	r30, 0xB2	; 178
    475e:	f3 e2       	ldi	r31, 0x23	; 35
    4760:	0c 94 01 22 	jmp	0x4402	; 0x4402 <__prologue_saves__+0x20>
    4764:	fe 01       	movw	r30, r28
    4766:	35 96       	adiw	r30, 0x05	; 5
    4768:	61 91       	ld	r22, Z+
    476a:	71 91       	ld	r23, Z+
    476c:	80 91 db 06 	lds	r24, 0x06DB
    4770:	90 91 dc 06 	lds	r25, 0x06DC
    4774:	af 01       	movw	r20, r30
    4776:	0e 94 c1 23 	call	0x4782	; 0x4782 <vfprintf>
    477a:	20 96       	adiw	r28, 0x00	; 0
    477c:	e2 e0       	ldi	r30, 0x02	; 2
    477e:	0c 94 1d 22 	jmp	0x443a	; 0x443a <__epilogue_restores__+0x20>

00004782 <vfprintf>:
    4782:	ac e0       	ldi	r26, 0x0C	; 12
    4784:	b0 e0       	ldi	r27, 0x00	; 0
    4786:	e7 ec       	ldi	r30, 0xC7	; 199
    4788:	f3 e2       	ldi	r31, 0x23	; 35
    478a:	0c 94 f1 21 	jmp	0x43e2	; 0x43e2 <__prologue_saves__>
    478e:	6c 01       	movw	r12, r24
    4790:	1b 01       	movw	r2, r22
    4792:	8a 01       	movw	r16, r20
    4794:	fc 01       	movw	r30, r24
    4796:	17 82       	std	Z+7, r1	; 0x07
    4798:	16 82       	std	Z+6, r1	; 0x06
    479a:	83 81       	ldd	r24, Z+3	; 0x03
    479c:	81 ff       	sbrs	r24, 1
    479e:	d1 c1       	rjmp	.+930    	; 0x4b42 <vfprintf+0x3c0>
    47a0:	2e 01       	movw	r4, r28
    47a2:	08 94       	sec
    47a4:	41 1c       	adc	r4, r1
    47a6:	51 1c       	adc	r5, r1
    47a8:	f6 01       	movw	r30, r12
    47aa:	93 81       	ldd	r25, Z+3	; 0x03
    47ac:	f1 01       	movw	r30, r2
    47ae:	93 fd       	sbrc	r25, 3
    47b0:	85 91       	lpm	r24, Z+
    47b2:	93 ff       	sbrs	r25, 3
    47b4:	81 91       	ld	r24, Z+
    47b6:	1f 01       	movw	r2, r30
    47b8:	88 23       	and	r24, r24
    47ba:	09 f4       	brne	.+2      	; 0x47be <vfprintf+0x3c>
    47bc:	be c1       	rjmp	.+892    	; 0x4b3a <vfprintf+0x3b8>
    47be:	85 32       	cpi	r24, 0x25	; 37
    47c0:	39 f4       	brne	.+14     	; 0x47d0 <vfprintf+0x4e>
    47c2:	93 fd       	sbrc	r25, 3
    47c4:	85 91       	lpm	r24, Z+
    47c6:	93 ff       	sbrs	r25, 3
    47c8:	81 91       	ld	r24, Z+
    47ca:	1f 01       	movw	r2, r30
    47cc:	85 32       	cpi	r24, 0x25	; 37
    47ce:	29 f4       	brne	.+10     	; 0x47da <vfprintf+0x58>
    47d0:	90 e0       	ldi	r25, 0x00	; 0
    47d2:	b6 01       	movw	r22, r12
    47d4:	0e 94 e9 25 	call	0x4bd2	; 0x4bd2 <fputc>
    47d8:	e7 cf       	rjmp	.-50     	; 0x47a8 <vfprintf+0x26>
    47da:	ee 24       	eor	r14, r14
    47dc:	ff 24       	eor	r15, r15
    47de:	20 e0       	ldi	r18, 0x00	; 0
    47e0:	20 32       	cpi	r18, 0x20	; 32
    47e2:	b0 f4       	brcc	.+44     	; 0x4810 <vfprintf+0x8e>
    47e4:	8b 32       	cpi	r24, 0x2B	; 43
    47e6:	69 f0       	breq	.+26     	; 0x4802 <vfprintf+0x80>
    47e8:	8c 32       	cpi	r24, 0x2C	; 44
    47ea:	28 f4       	brcc	.+10     	; 0x47f6 <vfprintf+0x74>
    47ec:	80 32       	cpi	r24, 0x20	; 32
    47ee:	51 f0       	breq	.+20     	; 0x4804 <vfprintf+0x82>
    47f0:	83 32       	cpi	r24, 0x23	; 35
    47f2:	71 f4       	brne	.+28     	; 0x4810 <vfprintf+0x8e>
    47f4:	0b c0       	rjmp	.+22     	; 0x480c <vfprintf+0x8a>
    47f6:	8d 32       	cpi	r24, 0x2D	; 45
    47f8:	39 f0       	breq	.+14     	; 0x4808 <vfprintf+0x86>
    47fa:	80 33       	cpi	r24, 0x30	; 48
    47fc:	49 f4       	brne	.+18     	; 0x4810 <vfprintf+0x8e>
    47fe:	21 60       	ori	r18, 0x01	; 1
    4800:	2c c0       	rjmp	.+88     	; 0x485a <vfprintf+0xd8>
    4802:	22 60       	ori	r18, 0x02	; 2
    4804:	24 60       	ori	r18, 0x04	; 4
    4806:	29 c0       	rjmp	.+82     	; 0x485a <vfprintf+0xd8>
    4808:	28 60       	ori	r18, 0x08	; 8
    480a:	27 c0       	rjmp	.+78     	; 0x485a <vfprintf+0xd8>
    480c:	20 61       	ori	r18, 0x10	; 16
    480e:	25 c0       	rjmp	.+74     	; 0x485a <vfprintf+0xd8>
    4810:	27 fd       	sbrc	r18, 7
    4812:	2c c0       	rjmp	.+88     	; 0x486c <vfprintf+0xea>
    4814:	38 2f       	mov	r19, r24
    4816:	30 53       	subi	r19, 0x30	; 48
    4818:	3a 30       	cpi	r19, 0x0A	; 10
    481a:	98 f4       	brcc	.+38     	; 0x4842 <vfprintf+0xc0>
    481c:	26 ff       	sbrs	r18, 6
    481e:	08 c0       	rjmp	.+16     	; 0x4830 <vfprintf+0xae>
    4820:	8e 2d       	mov	r24, r14
    4822:	88 0f       	add	r24, r24
    4824:	e8 2e       	mov	r14, r24
    4826:	ee 0c       	add	r14, r14
    4828:	ee 0c       	add	r14, r14
    482a:	e8 0e       	add	r14, r24
    482c:	e3 0e       	add	r14, r19
    482e:	15 c0       	rjmp	.+42     	; 0x485a <vfprintf+0xd8>
    4830:	8f 2d       	mov	r24, r15
    4832:	88 0f       	add	r24, r24
    4834:	f8 2e       	mov	r15, r24
    4836:	ff 0c       	add	r15, r15
    4838:	ff 0c       	add	r15, r15
    483a:	f8 0e       	add	r15, r24
    483c:	f3 0e       	add	r15, r19
    483e:	20 62       	ori	r18, 0x20	; 32
    4840:	0c c0       	rjmp	.+24     	; 0x485a <vfprintf+0xd8>
    4842:	8e 32       	cpi	r24, 0x2E	; 46
    4844:	21 f4       	brne	.+8      	; 0x484e <vfprintf+0xcc>
    4846:	26 fd       	sbrc	r18, 6
    4848:	78 c1       	rjmp	.+752    	; 0x4b3a <vfprintf+0x3b8>
    484a:	20 64       	ori	r18, 0x40	; 64
    484c:	06 c0       	rjmp	.+12     	; 0x485a <vfprintf+0xd8>
    484e:	8c 36       	cpi	r24, 0x6C	; 108
    4850:	11 f4       	brne	.+4      	; 0x4856 <vfprintf+0xd4>
    4852:	20 68       	ori	r18, 0x80	; 128
    4854:	02 c0       	rjmp	.+4      	; 0x485a <vfprintf+0xd8>
    4856:	88 36       	cpi	r24, 0x68	; 104
    4858:	49 f4       	brne	.+18     	; 0x486c <vfprintf+0xea>
    485a:	f1 01       	movw	r30, r2
    485c:	93 fd       	sbrc	r25, 3
    485e:	85 91       	lpm	r24, Z+
    4860:	93 ff       	sbrs	r25, 3
    4862:	81 91       	ld	r24, Z+
    4864:	1f 01       	movw	r2, r30
    4866:	88 23       	and	r24, r24
    4868:	09 f0       	breq	.+2      	; 0x486c <vfprintf+0xea>
    486a:	ba cf       	rjmp	.-140    	; 0x47e0 <vfprintf+0x5e>
    486c:	98 2f       	mov	r25, r24
    486e:	95 54       	subi	r25, 0x45	; 69
    4870:	93 30       	cpi	r25, 0x03	; 3
    4872:	18 f0       	brcs	.+6      	; 0x487a <vfprintf+0xf8>
    4874:	90 52       	subi	r25, 0x20	; 32
    4876:	93 30       	cpi	r25, 0x03	; 3
    4878:	28 f4       	brcc	.+10     	; 0x4884 <vfprintf+0x102>
    487a:	0c 5f       	subi	r16, 0xFC	; 252
    487c:	1f 4f       	sbci	r17, 0xFF	; 255
    487e:	ff e3       	ldi	r31, 0x3F	; 63
    4880:	f9 83       	std	Y+1, r31	; 0x01
    4882:	0d c0       	rjmp	.+26     	; 0x489e <vfprintf+0x11c>
    4884:	83 36       	cpi	r24, 0x63	; 99
    4886:	31 f0       	breq	.+12     	; 0x4894 <vfprintf+0x112>
    4888:	83 37       	cpi	r24, 0x73	; 115
    488a:	71 f0       	breq	.+28     	; 0x48a8 <vfprintf+0x126>
    488c:	83 35       	cpi	r24, 0x53	; 83
    488e:	09 f0       	breq	.+2      	; 0x4892 <vfprintf+0x110>
    4890:	60 c0       	rjmp	.+192    	; 0x4952 <vfprintf+0x1d0>
    4892:	22 c0       	rjmp	.+68     	; 0x48d8 <vfprintf+0x156>
    4894:	f8 01       	movw	r30, r16
    4896:	80 81       	ld	r24, Z
    4898:	89 83       	std	Y+1, r24	; 0x01
    489a:	0e 5f       	subi	r16, 0xFE	; 254
    489c:	1f 4f       	sbci	r17, 0xFF	; 255
    489e:	42 01       	movw	r8, r4
    48a0:	71 e0       	ldi	r23, 0x01	; 1
    48a2:	a7 2e       	mov	r10, r23
    48a4:	b1 2c       	mov	r11, r1
    48a6:	16 c0       	rjmp	.+44     	; 0x48d4 <vfprintf+0x152>
    48a8:	62 e0       	ldi	r22, 0x02	; 2
    48aa:	66 2e       	mov	r6, r22
    48ac:	71 2c       	mov	r7, r1
    48ae:	60 0e       	add	r6, r16
    48b0:	71 1e       	adc	r7, r17
    48b2:	f8 01       	movw	r30, r16
    48b4:	80 80       	ld	r8, Z
    48b6:	91 80       	ldd	r9, Z+1	; 0x01
    48b8:	26 ff       	sbrs	r18, 6
    48ba:	03 c0       	rjmp	.+6      	; 0x48c2 <vfprintf+0x140>
    48bc:	6e 2d       	mov	r22, r14
    48be:	70 e0       	ldi	r23, 0x00	; 0
    48c0:	02 c0       	rjmp	.+4      	; 0x48c6 <vfprintf+0x144>
    48c2:	6f ef       	ldi	r22, 0xFF	; 255
    48c4:	7f ef       	ldi	r23, 0xFF	; 255
    48c6:	c4 01       	movw	r24, r8
    48c8:	2c 87       	std	Y+12, r18	; 0x0c
    48ca:	0e 94 de 25 	call	0x4bbc	; 0x4bbc <strnlen>
    48ce:	5c 01       	movw	r10, r24
    48d0:	83 01       	movw	r16, r6
    48d2:	2c 85       	ldd	r18, Y+12	; 0x0c
    48d4:	2f 77       	andi	r18, 0x7F	; 127
    48d6:	17 c0       	rjmp	.+46     	; 0x4906 <vfprintf+0x184>
    48d8:	52 e0       	ldi	r21, 0x02	; 2
    48da:	65 2e       	mov	r6, r21
    48dc:	71 2c       	mov	r7, r1
    48de:	60 0e       	add	r6, r16
    48e0:	71 1e       	adc	r7, r17
    48e2:	f8 01       	movw	r30, r16
    48e4:	80 80       	ld	r8, Z
    48e6:	91 80       	ldd	r9, Z+1	; 0x01
    48e8:	26 ff       	sbrs	r18, 6
    48ea:	03 c0       	rjmp	.+6      	; 0x48f2 <vfprintf+0x170>
    48ec:	6e 2d       	mov	r22, r14
    48ee:	70 e0       	ldi	r23, 0x00	; 0
    48f0:	02 c0       	rjmp	.+4      	; 0x48f6 <vfprintf+0x174>
    48f2:	6f ef       	ldi	r22, 0xFF	; 255
    48f4:	7f ef       	ldi	r23, 0xFF	; 255
    48f6:	c4 01       	movw	r24, r8
    48f8:	2c 87       	std	Y+12, r18	; 0x0c
    48fa:	0e 94 cc 25 	call	0x4b98	; 0x4b98 <strnlen_P>
    48fe:	5c 01       	movw	r10, r24
    4900:	2c 85       	ldd	r18, Y+12	; 0x0c
    4902:	20 68       	ori	r18, 0x80	; 128
    4904:	83 01       	movw	r16, r6
    4906:	23 fd       	sbrc	r18, 3
    4908:	20 c0       	rjmp	.+64     	; 0x494a <vfprintf+0x1c8>
    490a:	08 c0       	rjmp	.+16     	; 0x491c <vfprintf+0x19a>
    490c:	80 e2       	ldi	r24, 0x20	; 32
    490e:	90 e0       	ldi	r25, 0x00	; 0
    4910:	b6 01       	movw	r22, r12
    4912:	2c 87       	std	Y+12, r18	; 0x0c
    4914:	0e 94 e9 25 	call	0x4bd2	; 0x4bd2 <fputc>
    4918:	fa 94       	dec	r15
    491a:	2c 85       	ldd	r18, Y+12	; 0x0c
    491c:	8f 2d       	mov	r24, r15
    491e:	90 e0       	ldi	r25, 0x00	; 0
    4920:	a8 16       	cp	r10, r24
    4922:	b9 06       	cpc	r11, r25
    4924:	98 f3       	brcs	.-26     	; 0x490c <vfprintf+0x18a>
    4926:	11 c0       	rjmp	.+34     	; 0x494a <vfprintf+0x1c8>
    4928:	f4 01       	movw	r30, r8
    492a:	27 fd       	sbrc	r18, 7
    492c:	85 91       	lpm	r24, Z+
    492e:	27 ff       	sbrs	r18, 7
    4930:	81 91       	ld	r24, Z+
    4932:	4f 01       	movw	r8, r30
    4934:	90 e0       	ldi	r25, 0x00	; 0
    4936:	b6 01       	movw	r22, r12
    4938:	2c 87       	std	Y+12, r18	; 0x0c
    493a:	0e 94 e9 25 	call	0x4bd2	; 0x4bd2 <fputc>
    493e:	2c 85       	ldd	r18, Y+12	; 0x0c
    4940:	f1 10       	cpse	r15, r1
    4942:	fa 94       	dec	r15
    4944:	08 94       	sec
    4946:	a1 08       	sbc	r10, r1
    4948:	b1 08       	sbc	r11, r1
    494a:	a1 14       	cp	r10, r1
    494c:	b1 04       	cpc	r11, r1
    494e:	61 f7       	brne	.-40     	; 0x4928 <vfprintf+0x1a6>
    4950:	f1 c0       	rjmp	.+482    	; 0x4b34 <vfprintf+0x3b2>
    4952:	84 36       	cpi	r24, 0x64	; 100
    4954:	11 f0       	breq	.+4      	; 0x495a <vfprintf+0x1d8>
    4956:	89 36       	cpi	r24, 0x69	; 105
    4958:	49 f5       	brne	.+82     	; 0x49ac <vfprintf+0x22a>
    495a:	27 ff       	sbrs	r18, 7
    495c:	08 c0       	rjmp	.+16     	; 0x496e <vfprintf+0x1ec>
    495e:	f8 01       	movw	r30, r16
    4960:	60 81       	ld	r22, Z
    4962:	71 81       	ldd	r23, Z+1	; 0x01
    4964:	82 81       	ldd	r24, Z+2	; 0x02
    4966:	93 81       	ldd	r25, Z+3	; 0x03
    4968:	0c 5f       	subi	r16, 0xFC	; 252
    496a:	1f 4f       	sbci	r17, 0xFF	; 255
    496c:	09 c0       	rjmp	.+18     	; 0x4980 <vfprintf+0x1fe>
    496e:	f8 01       	movw	r30, r16
    4970:	60 81       	ld	r22, Z
    4972:	71 81       	ldd	r23, Z+1	; 0x01
    4974:	88 27       	eor	r24, r24
    4976:	77 fd       	sbrc	r23, 7
    4978:	80 95       	com	r24
    497a:	98 2f       	mov	r25, r24
    497c:	0e 5f       	subi	r16, 0xFE	; 254
    497e:	1f 4f       	sbci	r17, 0xFF	; 255
    4980:	4f e6       	ldi	r20, 0x6F	; 111
    4982:	b4 2e       	mov	r11, r20
    4984:	b2 22       	and	r11, r18
    4986:	97 ff       	sbrs	r25, 7
    4988:	09 c0       	rjmp	.+18     	; 0x499c <vfprintf+0x21a>
    498a:	90 95       	com	r25
    498c:	80 95       	com	r24
    498e:	70 95       	com	r23
    4990:	61 95       	neg	r22
    4992:	7f 4f       	sbci	r23, 0xFF	; 255
    4994:	8f 4f       	sbci	r24, 0xFF	; 255
    4996:	9f 4f       	sbci	r25, 0xFF	; 255
    4998:	f0 e8       	ldi	r31, 0x80	; 128
    499a:	bf 2a       	or	r11, r31
    499c:	a2 01       	movw	r20, r4
    499e:	2a e0       	ldi	r18, 0x0A	; 10
    49a0:	30 e0       	ldi	r19, 0x00	; 0
    49a2:	0e 94 15 26 	call	0x4c2a	; 0x4c2a <__ultoa_invert>
    49a6:	78 2e       	mov	r7, r24
    49a8:	74 18       	sub	r7, r4
    49aa:	45 c0       	rjmp	.+138    	; 0x4a36 <vfprintf+0x2b4>
    49ac:	85 37       	cpi	r24, 0x75	; 117
    49ae:	31 f4       	brne	.+12     	; 0x49bc <vfprintf+0x23a>
    49b0:	3f ee       	ldi	r19, 0xEF	; 239
    49b2:	b3 2e       	mov	r11, r19
    49b4:	b2 22       	and	r11, r18
    49b6:	2a e0       	ldi	r18, 0x0A	; 10
    49b8:	30 e0       	ldi	r19, 0x00	; 0
    49ba:	25 c0       	rjmp	.+74     	; 0x4a06 <vfprintf+0x284>
    49bc:	99 ef       	ldi	r25, 0xF9	; 249
    49be:	b9 2e       	mov	r11, r25
    49c0:	b2 22       	and	r11, r18
    49c2:	8f 36       	cpi	r24, 0x6F	; 111
    49c4:	c1 f0       	breq	.+48     	; 0x49f6 <vfprintf+0x274>
    49c6:	80 37       	cpi	r24, 0x70	; 112
    49c8:	20 f4       	brcc	.+8      	; 0x49d2 <vfprintf+0x250>
    49ca:	88 35       	cpi	r24, 0x58	; 88
    49cc:	09 f0       	breq	.+2      	; 0x49d0 <vfprintf+0x24e>
    49ce:	b5 c0       	rjmp	.+362    	; 0x4b3a <vfprintf+0x3b8>
    49d0:	0d c0       	rjmp	.+26     	; 0x49ec <vfprintf+0x26a>
    49d2:	80 37       	cpi	r24, 0x70	; 112
    49d4:	21 f0       	breq	.+8      	; 0x49de <vfprintf+0x25c>
    49d6:	88 37       	cpi	r24, 0x78	; 120
    49d8:	09 f0       	breq	.+2      	; 0x49dc <vfprintf+0x25a>
    49da:	af c0       	rjmp	.+350    	; 0x4b3a <vfprintf+0x3b8>
    49dc:	02 c0       	rjmp	.+4      	; 0x49e2 <vfprintf+0x260>
    49de:	20 e1       	ldi	r18, 0x10	; 16
    49e0:	b2 2a       	or	r11, r18
    49e2:	b4 fe       	sbrs	r11, 4
    49e4:	0b c0       	rjmp	.+22     	; 0x49fc <vfprintf+0x27a>
    49e6:	84 e0       	ldi	r24, 0x04	; 4
    49e8:	b8 2a       	or	r11, r24
    49ea:	08 c0       	rjmp	.+16     	; 0x49fc <vfprintf+0x27a>
    49ec:	b4 fe       	sbrs	r11, 4
    49ee:	09 c0       	rjmp	.+18     	; 0x4a02 <vfprintf+0x280>
    49f0:	e6 e0       	ldi	r30, 0x06	; 6
    49f2:	be 2a       	or	r11, r30
    49f4:	06 c0       	rjmp	.+12     	; 0x4a02 <vfprintf+0x280>
    49f6:	28 e0       	ldi	r18, 0x08	; 8
    49f8:	30 e0       	ldi	r19, 0x00	; 0
    49fa:	05 c0       	rjmp	.+10     	; 0x4a06 <vfprintf+0x284>
    49fc:	20 e1       	ldi	r18, 0x10	; 16
    49fe:	30 e0       	ldi	r19, 0x00	; 0
    4a00:	02 c0       	rjmp	.+4      	; 0x4a06 <vfprintf+0x284>
    4a02:	20 e1       	ldi	r18, 0x10	; 16
    4a04:	32 e0       	ldi	r19, 0x02	; 2
    4a06:	b7 fe       	sbrs	r11, 7
    4a08:	08 c0       	rjmp	.+16     	; 0x4a1a <vfprintf+0x298>
    4a0a:	f8 01       	movw	r30, r16
    4a0c:	60 81       	ld	r22, Z
    4a0e:	71 81       	ldd	r23, Z+1	; 0x01
    4a10:	82 81       	ldd	r24, Z+2	; 0x02
    4a12:	93 81       	ldd	r25, Z+3	; 0x03
    4a14:	0c 5f       	subi	r16, 0xFC	; 252
    4a16:	1f 4f       	sbci	r17, 0xFF	; 255
    4a18:	07 c0       	rjmp	.+14     	; 0x4a28 <vfprintf+0x2a6>
    4a1a:	f8 01       	movw	r30, r16
    4a1c:	60 81       	ld	r22, Z
    4a1e:	71 81       	ldd	r23, Z+1	; 0x01
    4a20:	80 e0       	ldi	r24, 0x00	; 0
    4a22:	90 e0       	ldi	r25, 0x00	; 0
    4a24:	0e 5f       	subi	r16, 0xFE	; 254
    4a26:	1f 4f       	sbci	r17, 0xFF	; 255
    4a28:	a2 01       	movw	r20, r4
    4a2a:	0e 94 15 26 	call	0x4c2a	; 0x4c2a <__ultoa_invert>
    4a2e:	78 2e       	mov	r7, r24
    4a30:	74 18       	sub	r7, r4
    4a32:	ff e7       	ldi	r31, 0x7F	; 127
    4a34:	bf 22       	and	r11, r31
    4a36:	b6 fe       	sbrs	r11, 6
    4a38:	0b c0       	rjmp	.+22     	; 0x4a50 <vfprintf+0x2ce>
    4a3a:	2e ef       	ldi	r18, 0xFE	; 254
    4a3c:	b2 22       	and	r11, r18
    4a3e:	7e 14       	cp	r7, r14
    4a40:	38 f4       	brcc	.+14     	; 0x4a50 <vfprintf+0x2ce>
    4a42:	b4 fe       	sbrs	r11, 4
    4a44:	07 c0       	rjmp	.+14     	; 0x4a54 <vfprintf+0x2d2>
    4a46:	b2 fc       	sbrc	r11, 2
    4a48:	05 c0       	rjmp	.+10     	; 0x4a54 <vfprintf+0x2d2>
    4a4a:	8f ee       	ldi	r24, 0xEF	; 239
    4a4c:	b8 22       	and	r11, r24
    4a4e:	02 c0       	rjmp	.+4      	; 0x4a54 <vfprintf+0x2d2>
    4a50:	a7 2c       	mov	r10, r7
    4a52:	01 c0       	rjmp	.+2      	; 0x4a56 <vfprintf+0x2d4>
    4a54:	ae 2c       	mov	r10, r14
    4a56:	8b 2d       	mov	r24, r11
    4a58:	90 e0       	ldi	r25, 0x00	; 0
    4a5a:	b4 fe       	sbrs	r11, 4
    4a5c:	0d c0       	rjmp	.+26     	; 0x4a78 <vfprintf+0x2f6>
    4a5e:	fe 01       	movw	r30, r28
    4a60:	e7 0d       	add	r30, r7
    4a62:	f1 1d       	adc	r31, r1
    4a64:	20 81       	ld	r18, Z
    4a66:	20 33       	cpi	r18, 0x30	; 48
    4a68:	19 f4       	brne	.+6      	; 0x4a70 <vfprintf+0x2ee>
    4a6a:	e9 ee       	ldi	r30, 0xE9	; 233
    4a6c:	be 22       	and	r11, r30
    4a6e:	09 c0       	rjmp	.+18     	; 0x4a82 <vfprintf+0x300>
    4a70:	a3 94       	inc	r10
    4a72:	b2 fe       	sbrs	r11, 2
    4a74:	06 c0       	rjmp	.+12     	; 0x4a82 <vfprintf+0x300>
    4a76:	04 c0       	rjmp	.+8      	; 0x4a80 <vfprintf+0x2fe>
    4a78:	86 78       	andi	r24, 0x86	; 134
    4a7a:	90 70       	andi	r25, 0x00	; 0
    4a7c:	00 97       	sbiw	r24, 0x00	; 0
    4a7e:	09 f0       	breq	.+2      	; 0x4a82 <vfprintf+0x300>
    4a80:	a3 94       	inc	r10
    4a82:	8b 2c       	mov	r8, r11
    4a84:	99 24       	eor	r9, r9
    4a86:	b3 fc       	sbrc	r11, 3
    4a88:	14 c0       	rjmp	.+40     	; 0x4ab2 <vfprintf+0x330>
    4a8a:	b0 fe       	sbrs	r11, 0
    4a8c:	0f c0       	rjmp	.+30     	; 0x4aac <vfprintf+0x32a>
    4a8e:	af 14       	cp	r10, r15
    4a90:	28 f4       	brcc	.+10     	; 0x4a9c <vfprintf+0x31a>
    4a92:	e7 2c       	mov	r14, r7
    4a94:	ef 0c       	add	r14, r15
    4a96:	ea 18       	sub	r14, r10
    4a98:	af 2c       	mov	r10, r15
    4a9a:	08 c0       	rjmp	.+16     	; 0x4aac <vfprintf+0x32a>
    4a9c:	e7 2c       	mov	r14, r7
    4a9e:	06 c0       	rjmp	.+12     	; 0x4aac <vfprintf+0x32a>
    4aa0:	80 e2       	ldi	r24, 0x20	; 32
    4aa2:	90 e0       	ldi	r25, 0x00	; 0
    4aa4:	b6 01       	movw	r22, r12
    4aa6:	0e 94 e9 25 	call	0x4bd2	; 0x4bd2 <fputc>
    4aaa:	a3 94       	inc	r10
    4aac:	af 14       	cp	r10, r15
    4aae:	c0 f3       	brcs	.-16     	; 0x4aa0 <vfprintf+0x31e>
    4ab0:	04 c0       	rjmp	.+8      	; 0x4aba <vfprintf+0x338>
    4ab2:	af 14       	cp	r10, r15
    4ab4:	10 f4       	brcc	.+4      	; 0x4aba <vfprintf+0x338>
    4ab6:	fa 18       	sub	r15, r10
    4ab8:	01 c0       	rjmp	.+2      	; 0x4abc <vfprintf+0x33a>
    4aba:	ff 24       	eor	r15, r15
    4abc:	84 fe       	sbrs	r8, 4
    4abe:	0f c0       	rjmp	.+30     	; 0x4ade <vfprintf+0x35c>
    4ac0:	80 e3       	ldi	r24, 0x30	; 48
    4ac2:	90 e0       	ldi	r25, 0x00	; 0
    4ac4:	b6 01       	movw	r22, r12
    4ac6:	0e 94 e9 25 	call	0x4bd2	; 0x4bd2 <fputc>
    4aca:	82 fe       	sbrs	r8, 2
    4acc:	1f c0       	rjmp	.+62     	; 0x4b0c <vfprintf+0x38a>
    4ace:	81 fe       	sbrs	r8, 1
    4ad0:	03 c0       	rjmp	.+6      	; 0x4ad8 <vfprintf+0x356>
    4ad2:	88 e5       	ldi	r24, 0x58	; 88
    4ad4:	90 e0       	ldi	r25, 0x00	; 0
    4ad6:	10 c0       	rjmp	.+32     	; 0x4af8 <vfprintf+0x376>
    4ad8:	88 e7       	ldi	r24, 0x78	; 120
    4ada:	90 e0       	ldi	r25, 0x00	; 0
    4adc:	0d c0       	rjmp	.+26     	; 0x4af8 <vfprintf+0x376>
    4ade:	c4 01       	movw	r24, r8
    4ae0:	86 78       	andi	r24, 0x86	; 134
    4ae2:	90 70       	andi	r25, 0x00	; 0
    4ae4:	00 97       	sbiw	r24, 0x00	; 0
    4ae6:	91 f0       	breq	.+36     	; 0x4b0c <vfprintf+0x38a>
    4ae8:	81 fc       	sbrc	r8, 1
    4aea:	02 c0       	rjmp	.+4      	; 0x4af0 <vfprintf+0x36e>
    4aec:	80 e2       	ldi	r24, 0x20	; 32
    4aee:	01 c0       	rjmp	.+2      	; 0x4af2 <vfprintf+0x370>
    4af0:	8b e2       	ldi	r24, 0x2B	; 43
    4af2:	b7 fc       	sbrc	r11, 7
    4af4:	8d e2       	ldi	r24, 0x2D	; 45
    4af6:	90 e0       	ldi	r25, 0x00	; 0
    4af8:	b6 01       	movw	r22, r12
    4afa:	0e 94 e9 25 	call	0x4bd2	; 0x4bd2 <fputc>
    4afe:	06 c0       	rjmp	.+12     	; 0x4b0c <vfprintf+0x38a>
    4b00:	80 e3       	ldi	r24, 0x30	; 48
    4b02:	90 e0       	ldi	r25, 0x00	; 0
    4b04:	b6 01       	movw	r22, r12
    4b06:	0e 94 e9 25 	call	0x4bd2	; 0x4bd2 <fputc>
    4b0a:	ea 94       	dec	r14
    4b0c:	7e 14       	cp	r7, r14
    4b0e:	c0 f3       	brcs	.-16     	; 0x4b00 <vfprintf+0x37e>
    4b10:	7a 94       	dec	r7
    4b12:	f2 01       	movw	r30, r4
    4b14:	e7 0d       	add	r30, r7
    4b16:	f1 1d       	adc	r31, r1
    4b18:	80 81       	ld	r24, Z
    4b1a:	90 e0       	ldi	r25, 0x00	; 0
    4b1c:	b6 01       	movw	r22, r12
    4b1e:	0e 94 e9 25 	call	0x4bd2	; 0x4bd2 <fputc>
    4b22:	77 20       	and	r7, r7
    4b24:	a9 f7       	brne	.-22     	; 0x4b10 <vfprintf+0x38e>
    4b26:	06 c0       	rjmp	.+12     	; 0x4b34 <vfprintf+0x3b2>
    4b28:	80 e2       	ldi	r24, 0x20	; 32
    4b2a:	90 e0       	ldi	r25, 0x00	; 0
    4b2c:	b6 01       	movw	r22, r12
    4b2e:	0e 94 e9 25 	call	0x4bd2	; 0x4bd2 <fputc>
    4b32:	fa 94       	dec	r15
    4b34:	ff 20       	and	r15, r15
    4b36:	c1 f7       	brne	.-16     	; 0x4b28 <vfprintf+0x3a6>
    4b38:	37 ce       	rjmp	.-914    	; 0x47a8 <vfprintf+0x26>
    4b3a:	f6 01       	movw	r30, r12
    4b3c:	26 81       	ldd	r18, Z+6	; 0x06
    4b3e:	37 81       	ldd	r19, Z+7	; 0x07
    4b40:	02 c0       	rjmp	.+4      	; 0x4b46 <vfprintf+0x3c4>
    4b42:	2f ef       	ldi	r18, 0xFF	; 255
    4b44:	3f ef       	ldi	r19, 0xFF	; 255
    4b46:	c9 01       	movw	r24, r18
    4b48:	2c 96       	adiw	r28, 0x0c	; 12
    4b4a:	e2 e1       	ldi	r30, 0x12	; 18
    4b4c:	0c 94 0d 22 	jmp	0x441a	; 0x441a <__epilogue_restores__>

00004b50 <calloc>:
    4b50:	ef 92       	push	r14
    4b52:	ff 92       	push	r15
    4b54:	0f 93       	push	r16
    4b56:	1f 93       	push	r17
    4b58:	cf 93       	push	r28
    4b5a:	df 93       	push	r29
    4b5c:	68 9f       	mul	r22, r24
    4b5e:	80 01       	movw	r16, r0
    4b60:	69 9f       	mul	r22, r25
    4b62:	10 0d       	add	r17, r0
    4b64:	78 9f       	mul	r23, r24
    4b66:	10 0d       	add	r17, r0
    4b68:	11 24       	eor	r1, r1
    4b6a:	c8 01       	movw	r24, r16
    4b6c:	0e 94 2e 22 	call	0x445c	; 0x445c <malloc>
    4b70:	e8 2e       	mov	r14, r24
    4b72:	e7 01       	movw	r28, r14
    4b74:	7e 01       	movw	r14, r28
    4b76:	f9 2e       	mov	r15, r25
    4b78:	e7 01       	movw	r28, r14
    4b7a:	20 97       	sbiw	r28, 0x00	; 0
    4b7c:	31 f0       	breq	.+12     	; 0x4b8a <calloc+0x3a>
    4b7e:	8e 2d       	mov	r24, r14
    4b80:	60 e0       	ldi	r22, 0x00	; 0
    4b82:	70 e0       	ldi	r23, 0x00	; 0
    4b84:	a8 01       	movw	r20, r16
    4b86:	0e 94 d7 25 	call	0x4bae	; 0x4bae <memset>
    4b8a:	7e 01       	movw	r14, r28
    4b8c:	ce 01       	movw	r24, r28
    4b8e:	cd b7       	in	r28, 0x3d	; 61
    4b90:	de b7       	in	r29, 0x3e	; 62
    4b92:	e6 e0       	ldi	r30, 0x06	; 6
    4b94:	0c 94 19 22 	jmp	0x4432	; 0x4432 <__epilogue_restores__+0x18>

00004b98 <strnlen_P>:
    4b98:	fc 01       	movw	r30, r24
    4b9a:	05 90       	lpm	r0, Z+
    4b9c:	61 50       	subi	r22, 0x01	; 1
    4b9e:	70 40       	sbci	r23, 0x00	; 0
    4ba0:	01 10       	cpse	r0, r1
    4ba2:	d8 f7       	brcc	.-10     	; 0x4b9a <strnlen_P+0x2>
    4ba4:	80 95       	com	r24
    4ba6:	90 95       	com	r25
    4ba8:	8e 0f       	add	r24, r30
    4baa:	9f 1f       	adc	r25, r31
    4bac:	08 95       	ret

00004bae <memset>:
    4bae:	dc 01       	movw	r26, r24
    4bb0:	01 c0       	rjmp	.+2      	; 0x4bb4 <memset+0x6>
    4bb2:	6d 93       	st	X+, r22
    4bb4:	41 50       	subi	r20, 0x01	; 1
    4bb6:	50 40       	sbci	r21, 0x00	; 0
    4bb8:	e0 f7       	brcc	.-8      	; 0x4bb2 <memset+0x4>
    4bba:	08 95       	ret

00004bbc <strnlen>:
    4bbc:	fc 01       	movw	r30, r24
    4bbe:	61 50       	subi	r22, 0x01	; 1
    4bc0:	70 40       	sbci	r23, 0x00	; 0
    4bc2:	01 90       	ld	r0, Z+
    4bc4:	01 10       	cpse	r0, r1
    4bc6:	d8 f7       	brcc	.-10     	; 0x4bbe <strnlen+0x2>
    4bc8:	80 95       	com	r24
    4bca:	90 95       	com	r25
    4bcc:	8e 0f       	add	r24, r30
    4bce:	9f 1f       	adc	r25, r31
    4bd0:	08 95       	ret

00004bd2 <fputc>:
    4bd2:	0f 93       	push	r16
    4bd4:	1f 93       	push	r17
    4bd6:	cf 93       	push	r28
    4bd8:	df 93       	push	r29
    4bda:	8c 01       	movw	r16, r24
    4bdc:	eb 01       	movw	r28, r22
    4bde:	8b 81       	ldd	r24, Y+3	; 0x03
    4be0:	81 ff       	sbrs	r24, 1
    4be2:	1b c0       	rjmp	.+54     	; 0x4c1a <fputc+0x48>
    4be4:	82 ff       	sbrs	r24, 2
    4be6:	0d c0       	rjmp	.+26     	; 0x4c02 <fputc+0x30>
    4be8:	2e 81       	ldd	r18, Y+6	; 0x06
    4bea:	3f 81       	ldd	r19, Y+7	; 0x07
    4bec:	8c 81       	ldd	r24, Y+4	; 0x04
    4bee:	9d 81       	ldd	r25, Y+5	; 0x05
    4bf0:	28 17       	cp	r18, r24
    4bf2:	39 07       	cpc	r19, r25
    4bf4:	64 f4       	brge	.+24     	; 0x4c0e <fputc+0x3c>
    4bf6:	e8 81       	ld	r30, Y
    4bf8:	f9 81       	ldd	r31, Y+1	; 0x01
    4bfa:	01 93       	st	Z+, r16
    4bfc:	f9 83       	std	Y+1, r31	; 0x01
    4bfe:	e8 83       	st	Y, r30
    4c00:	06 c0       	rjmp	.+12     	; 0x4c0e <fputc+0x3c>
    4c02:	e8 85       	ldd	r30, Y+8	; 0x08
    4c04:	f9 85       	ldd	r31, Y+9	; 0x09
    4c06:	80 2f       	mov	r24, r16
    4c08:	09 95       	icall
    4c0a:	00 97       	sbiw	r24, 0x00	; 0
    4c0c:	31 f4       	brne	.+12     	; 0x4c1a <fputc+0x48>
    4c0e:	8e 81       	ldd	r24, Y+6	; 0x06
    4c10:	9f 81       	ldd	r25, Y+7	; 0x07
    4c12:	01 96       	adiw	r24, 0x01	; 1
    4c14:	9f 83       	std	Y+7, r25	; 0x07
    4c16:	8e 83       	std	Y+6, r24	; 0x06
    4c18:	02 c0       	rjmp	.+4      	; 0x4c1e <fputc+0x4c>
    4c1a:	0f ef       	ldi	r16, 0xFF	; 255
    4c1c:	1f ef       	ldi	r17, 0xFF	; 255
    4c1e:	c8 01       	movw	r24, r16
    4c20:	df 91       	pop	r29
    4c22:	cf 91       	pop	r28
    4c24:	1f 91       	pop	r17
    4c26:	0f 91       	pop	r16
    4c28:	08 95       	ret

00004c2a <__ultoa_invert>:
    4c2a:	fa 01       	movw	r30, r20
    4c2c:	aa 27       	eor	r26, r26
    4c2e:	28 30       	cpi	r18, 0x08	; 8
    4c30:	51 f1       	breq	.+84     	; 0x4c86 <__ultoa_invert+0x5c>
    4c32:	20 31       	cpi	r18, 0x10	; 16
    4c34:	81 f1       	breq	.+96     	; 0x4c96 <__ultoa_invert+0x6c>
    4c36:	e8 94       	clt
    4c38:	6f 93       	push	r22
    4c3a:	6e 7f       	andi	r22, 0xFE	; 254
    4c3c:	6e 5f       	subi	r22, 0xFE	; 254
    4c3e:	7f 4f       	sbci	r23, 0xFF	; 255
    4c40:	8f 4f       	sbci	r24, 0xFF	; 255
    4c42:	9f 4f       	sbci	r25, 0xFF	; 255
    4c44:	af 4f       	sbci	r26, 0xFF	; 255
    4c46:	b1 e0       	ldi	r27, 0x01	; 1
    4c48:	3e d0       	rcall	.+124    	; 0x4cc6 <__ultoa_invert+0x9c>
    4c4a:	b4 e0       	ldi	r27, 0x04	; 4
    4c4c:	3c d0       	rcall	.+120    	; 0x4cc6 <__ultoa_invert+0x9c>
    4c4e:	67 0f       	add	r22, r23
    4c50:	78 1f       	adc	r23, r24
    4c52:	89 1f       	adc	r24, r25
    4c54:	9a 1f       	adc	r25, r26
    4c56:	a1 1d       	adc	r26, r1
    4c58:	68 0f       	add	r22, r24
    4c5a:	79 1f       	adc	r23, r25
    4c5c:	8a 1f       	adc	r24, r26
    4c5e:	91 1d       	adc	r25, r1
    4c60:	a1 1d       	adc	r26, r1
    4c62:	6a 0f       	add	r22, r26
    4c64:	71 1d       	adc	r23, r1
    4c66:	81 1d       	adc	r24, r1
    4c68:	91 1d       	adc	r25, r1
    4c6a:	a1 1d       	adc	r26, r1
    4c6c:	20 d0       	rcall	.+64     	; 0x4cae <__ultoa_invert+0x84>
    4c6e:	09 f4       	brne	.+2      	; 0x4c72 <__ultoa_invert+0x48>
    4c70:	68 94       	set
    4c72:	3f 91       	pop	r19
    4c74:	2a e0       	ldi	r18, 0x0A	; 10
    4c76:	26 9f       	mul	r18, r22
    4c78:	11 24       	eor	r1, r1
    4c7a:	30 19       	sub	r19, r0
    4c7c:	30 5d       	subi	r19, 0xD0	; 208
    4c7e:	31 93       	st	Z+, r19
    4c80:	de f6       	brtc	.-74     	; 0x4c38 <__ultoa_invert+0xe>
    4c82:	cf 01       	movw	r24, r30
    4c84:	08 95       	ret
    4c86:	46 2f       	mov	r20, r22
    4c88:	47 70       	andi	r20, 0x07	; 7
    4c8a:	40 5d       	subi	r20, 0xD0	; 208
    4c8c:	41 93       	st	Z+, r20
    4c8e:	b3 e0       	ldi	r27, 0x03	; 3
    4c90:	0f d0       	rcall	.+30     	; 0x4cb0 <__ultoa_invert+0x86>
    4c92:	c9 f7       	brne	.-14     	; 0x4c86 <__ultoa_invert+0x5c>
    4c94:	f6 cf       	rjmp	.-20     	; 0x4c82 <__ultoa_invert+0x58>
    4c96:	46 2f       	mov	r20, r22
    4c98:	4f 70       	andi	r20, 0x0F	; 15
    4c9a:	40 5d       	subi	r20, 0xD0	; 208
    4c9c:	4a 33       	cpi	r20, 0x3A	; 58
    4c9e:	18 f0       	brcs	.+6      	; 0x4ca6 <__ultoa_invert+0x7c>
    4ca0:	49 5d       	subi	r20, 0xD9	; 217
    4ca2:	31 fd       	sbrc	r19, 1
    4ca4:	40 52       	subi	r20, 0x20	; 32
    4ca6:	41 93       	st	Z+, r20
    4ca8:	02 d0       	rcall	.+4      	; 0x4cae <__ultoa_invert+0x84>
    4caa:	a9 f7       	brne	.-22     	; 0x4c96 <__ultoa_invert+0x6c>
    4cac:	ea cf       	rjmp	.-44     	; 0x4c82 <__ultoa_invert+0x58>
    4cae:	b4 e0       	ldi	r27, 0x04	; 4
    4cb0:	a6 95       	lsr	r26
    4cb2:	97 95       	ror	r25
    4cb4:	87 95       	ror	r24
    4cb6:	77 95       	ror	r23
    4cb8:	67 95       	ror	r22
    4cba:	ba 95       	dec	r27
    4cbc:	c9 f7       	brne	.-14     	; 0x4cb0 <__ultoa_invert+0x86>
    4cbe:	00 97       	sbiw	r24, 0x00	; 0
    4cc0:	61 05       	cpc	r22, r1
    4cc2:	71 05       	cpc	r23, r1
    4cc4:	08 95       	ret
    4cc6:	9b 01       	movw	r18, r22
    4cc8:	ac 01       	movw	r20, r24
    4cca:	0a 2e       	mov	r0, r26
    4ccc:	06 94       	lsr	r0
    4cce:	57 95       	ror	r21
    4cd0:	47 95       	ror	r20
    4cd2:	37 95       	ror	r19
    4cd4:	27 95       	ror	r18
    4cd6:	ba 95       	dec	r27
    4cd8:	c9 f7       	brne	.-14     	; 0x4ccc <__ultoa_invert+0xa2>
    4cda:	62 0f       	add	r22, r18
    4cdc:	73 1f       	adc	r23, r19
    4cde:	84 1f       	adc	r24, r20
    4ce0:	95 1f       	adc	r25, r21
    4ce2:	a0 1d       	adc	r26, r0
    4ce4:	08 95       	ret

00004ce6 <__do_global_dtors>:
    4ce6:	10 e0       	ldi	r17, 0x00	; 0
    4ce8:	c2 ed       	ldi	r28, 0xD2	; 210
    4cea:	d0 e0       	ldi	r29, 0x00	; 0
    4cec:	04 c0       	rjmp	.+8      	; 0x4cf6 <__do_global_dtors+0x10>
    4cee:	fe 01       	movw	r30, r28
    4cf0:	0e 94 2a 22 	call	0x4454	; 0x4454 <__tablejump__>
    4cf4:	22 96       	adiw	r28, 0x02	; 2
    4cf6:	c4 3d       	cpi	r28, 0xD4	; 212
    4cf8:	d1 07       	cpc	r29, r17
    4cfa:	c9 f7       	brne	.-14     	; 0x4cee <__do_global_dtors+0x8>
    4cfc:	f8 94       	cli

00004cfe <__stop_program>:
    4cfe:	ff cf       	rjmp	.-2      	; 0x4cfe <__stop_program>
